	.file	"Map.c"
	.text
.Ltext0:
	.type	rbtree_min, @function
rbtree_min:
.LFB5:
	.file 1 "/home/xiaodo/c++/colang/src/internal/Map.h"
	.loc 1 69 0
	.cfi_startproc
	pushq	%rbp
	.cfi_def_cfa_offset 16
	.cfi_offset 6, -16
	movq	%rsp, %rbp
	.cfi_def_cfa_register 6
	movq	%rdi, -8(%rbp)
	movq	%rsi, -16(%rbp)
	.loc 1 70 0
	jmp	.L2
.L3:
	.loc 1 71 0
	movq	-8(%rbp), %rax
	movq	8(%rax), %rax
	movq	%rax, -8(%rbp)
.L2:
	.loc 1 70 0
	movq	-8(%rbp), %rax
	movq	8(%rax), %rax
	cmpq	%rax, -16(%rbp)
	jne	.L3
	.loc 1 74 0
	movq	-8(%rbp), %rax
	.loc 1 75 0
	popq	%rbp
	.cfi_def_cfa 7, 8
	ret
	.cfi_endproc
.LFE5:
	.size	rbtree_min, .-rbtree_min
	.type	stringlen, @function
stringlen:
.LFB6:
	.file 2 "/home/xiaodo/c++/colang/src/internal/String.h"
	.loc 2 55 0
	.cfi_startproc
	pushq	%rbp
	.cfi_def_cfa_offset 16
	.cfi_offset 6, -16
	movq	%rsp, %rbp
	.cfi_def_cfa_register 6
	movq	%rdi, -24(%rbp)
	.loc 2 56 0
	movq	-24(%rbp), %rax
	subq	$1, %rax
	movzbl	(%rax), %eax
	movb	%al, -1(%rbp)
	.loc 2 57 0
	movzbl	-1(%rbp), %eax
	andl	$7, %eax
	cmpl	$4, %eax
	ja	.L6
	movl	%eax, %eax
	leaq	0(,%rax,4), %rdx
	leaq	.L8(%rip), %rax
	movl	(%rdx,%rax), %eax
	movslq	%eax, %rdx
	leaq	.L8(%rip), %rax
	addq	%rdx, %rax
	jmp	*%rax
#	.section	.rodata
	.align 4
	.align 4
.L8:
	.long	.L7-.L8
	.long	.L9-.L8
	.long	.L10-.L8
	.long	.L11-.L8
	.long	.L12-.L8
	.text
.L7:
	.loc 2 59 0
	movzbl	-1(%rbp), %eax
	shrb	$3, %al
	movzbl	%al, %eax
	jmp	.L13
.L9:
	.loc 2 61 0
	movq	-24(%rbp), %rax
	subq	$3, %rax
	movzbl	(%rax), %eax
	movzbl	%al, %eax
	jmp	.L13
.L10:
	.loc 2 63 0
	movq	-24(%rbp), %rax
	subq	$5, %rax
	movzwl	(%rax), %eax
	movzwl	%ax, %eax
	jmp	.L13
.L11:
	.loc 2 65 0
	movq	-24(%rbp), %rax
	subq	$9, %rax
	movl	(%rax), %eax
	movl	%eax, %eax
	jmp	.L13
.L12:
	.loc 2 67 0
	movq	-24(%rbp), %rax
	subq	$17, %rax
	movq	(%rax), %rax
	jmp	.L13
.L6:
	.loc 2 69 0
	movl	$0, %eax
.L13:
	.loc 2 70 0
	popq	%rbp
	.cfi_def_cfa 7, 8
	ret
	.cfi_endproc
.LFE6:
	.size	stringlen, .-stringlen
	.globl	map_insert_or_update
	.type	map_insert_or_update, @function
map_insert_or_update:
.LFB12:
	.file 3 "/home/xiaodo/c++/colang/src/internal/Map.c"
	.loc 3 10 0
	.cfi_startproc
	pushq	%rbp
	.cfi_def_cfa_offset 16
	.cfi_offset 6, -16
	movq	%rsp, %rbp
	.cfi_def_cfa_register 6
	movq	%rdi, -24(%rbp)
	movq	%rsi, -32(%rbp)
	movq	%rdx, -40(%rbp)
.L21:
	.loc 3 15 0
	movq	-32(%rbp), %rax
	movq	(%rax), %rdx
	movq	-24(%rbp), %rax
	movq	(%rax), %rax
	cmpq	%rax, %rdx
	jne	.L15
	.loc 3 16 0
	movq	-24(%rbp), %rax
	movq	40(%rax), %rax
	movq	(%rax), %rdx
	movq	-32(%rbp), %rax
	movq	40(%rax), %rax
	movq	(%rax), %rax
	cmpq	%rax, %rdx
	jne	.L15
	.loc 3 17 0
	movq	-32(%rbp), %rax
	movq	40(%rax), %rdx
	movq	-24(%rbp), %rax
	movq	%rdx, 40(%rax)
	.loc 3 18 0
	jmp	.L14
.L15:
	.loc 3 21 0
	movq	-32(%rbp), %rax
	movq	(%rax), %rdx
	movq	-24(%rbp), %rax
	movq	(%rax), %rax
	cmpq	%rax, %rdx
	jnb	.L17
	.loc 3 21 0 is_stmt 0 discriminator 1
	movq	-24(%rbp), %rax
	addq	$8, %rax
	jmp	.L18
.L17:
	.loc 3 21 0 discriminator 2
	movq	-24(%rbp), %rax
	addq	$16, %rax
.L18:
	.loc 3 21 0 discriminator 4
	movq	%rax, -8(%rbp)
	.loc 3 23 0 is_stmt 1 discriminator 4
	movq	-8(%rbp), %rax
	movq	(%rax), %rax
	cmpq	%rax, -40(%rbp)
	je	.L23
	.loc 3 27 0
	movq	-8(%rbp), %rax
	movq	(%rax), %rax
	movq	%rax, -24(%rbp)
	.loc 3 15 0
	jmp	.L21
.L23:
	.loc 3 24 0
	nop
	.loc 3 30 0
	movq	-8(%rbp), %rax
	movq	-32(%rbp), %rdx
	movq	%rdx, (%rax)
	.loc 3 31 0
	movq	-32(%rbp), %rax
	movq	-24(%rbp), %rdx
	movq	%rdx, 24(%rax)
	.loc 3 32 0
	movq	-32(%rbp), %rax
	movq	-40(%rbp), %rdx
	movq	%rdx, 8(%rax)
	.loc 3 33 0
	movq	-32(%rbp), %rax
	movq	-40(%rbp), %rdx
	movq	%rdx, 16(%rax)
	.loc 3 34 0
	movq	-32(%rbp), %rax
	movb	$1, 48(%rax)
.L14:
	.loc 3 35 0
	popq	%rbp
	.cfi_def_cfa 7, 8
	ret
	.cfi_endproc
.LFE12:
	.size	map_insert_or_update, .-map_insert_or_update
	.globl	hash_key
	.type	hash_key, @function
hash_key:
.LFB13:
	.loc 3 36 0
	.cfi_startproc
	pushq	%rbp
	.cfi_def_cfa_offset 16
	.cfi_offset 6, -16
	movq	%rsp, %rbp
	.cfi_def_cfa_register 6
	movq	%rdi, -24(%rbp)
	movq	%rsi, -32(%rbp)
	.loc 3 38 0
	movl	$0, -8(%rbp)
	.loc 3 39 0
	movl	$0, -4(%rbp)
	jmp	.L25
.L26:
	.loc 3 40 0 discriminator 3
	movl	-8(%rbp), %edx
	movl	%edx, %eax
	sall	$5, %eax
	subl	%edx, %eax
	movl	%eax, %ecx
	movl	-4(%rbp), %edx
	movq	-24(%rbp), %rax
	addq	%rdx, %rax
	movzbl	(%rax), %eax
	movzbl	%al, %eax
	addl	%ecx, %eax
	movl	%eax, -8(%rbp)
	.loc 3 39 0 discriminator 3
	addl	$1, -4(%rbp)
.L25:
	.loc 3 39 0 is_stmt 0 discriminator 1
	movl	-4(%rbp), %eax
	cmpq	%rax, -32(%rbp)
	ja	.L26
	.loc 3 42 0 is_stmt 1
	movl	-8(%rbp), %eax
	.loc 3 43 0
	popq	%rbp
	.cfi_def_cfa 7, 8
	ret
	.cfi_endproc
.LFE13:
	.size	hash_key, .-hash_key
	.globl	map_create
	.type	map_create, @function
map_create:
.LFB14:
	.loc 3 45 0
	.cfi_startproc
	pushq	%rbp
	.cfi_def_cfa_offset 16
	.cfi_offset 6, -16
	movq	%rsp, %rbp
	.cfi_def_cfa_register 6
	subq	$16, %rsp
	.loc 3 46 0
	movl	$24, %edi
	call	gc_malloc@PLT
	movq	%rax, -8(%rbp)
	.loc 3 47 0
	movl	$56, %edi
	call	gc_malloc@PLT
	movq	%rax, -16(%rbp)
	.loc 3 48 0
	movq	-16(%rbp), %rax
	movb	$0, 48(%rax)
	movq	-8(%rbp), %rax
	movq	-16(%rbp), %rdx
	movq	%rdx, (%rax)
	movq	-8(%rbp), %rax
	movq	-16(%rbp), %rdx
	movq	%rdx, 8(%rax)
	movq	-8(%rbp), %rax
	leaq	map_insert_or_update(%rip), %rdx
	movq	%rdx, 16(%rax)
	.loc 3 49 0
	movq	-8(%rbp), %rax
	.loc 3 50 0
	leave
	.cfi_def_cfa 7, 8
	ret
	.cfi_endproc
.LFE14:
	.size	map_create, .-map_create
	.globl	map_insert
	.type	map_insert, @function
map_insert:
.LFB15:
	.loc 3 52 0
	.cfi_startproc
	pushq	%rbp
	.cfi_def_cfa_offset 16
	.cfi_offset 6, -16
	movq	%rsp, %rbp
	.cfi_def_cfa_register 6
	subq	$64, %rsp
	movq	%rdi, -40(%rbp)
	movq	%rsi, -48(%rbp)
	movq	%rdx, -56(%rbp)
	.loc 3 54 0
	movq	-40(%rbp), %rax
	movq	8(%rax), %rax
	movq	%rax, -16(%rbp)
	.loc 3 55 0
	movl	$56, %edi
	call	gc_malloc@PLT
	movq	%rax, -24(%rbp)
	.loc 3 56 0
	movq	$0, -8(%rbp)
	.loc 3 57 0
	movq	-48(%rbp), %rax
	movq	(%rax), %rax
	cmpq	$3, %rax
	je	.L32
	cmpq	$3, %rax
	jg	.L33
	cmpq	$1, %rax
	jl	.L31
	jmp	.L34
.L33:
	cmpq	$4, %rax
	jne	.L31
.L34:
	.loc 3 61 0
	movq	-48(%rbp), %rax
	movq	8(%rax), %rax
	movq	%rax, -8(%rbp)
	jmp	.L31
.L32:
	.loc 3 63 0
	movq	-48(%rbp), %rax
	movq	8(%rax), %rax
	movq	%rax, %rdi
	call	stringlen
	movq	%rax, %rdx
	movq	-48(%rbp), %rax
	movq	8(%rax), %rax
	movq	%rdx, %rsi
	movq	%rax, %rdi
	call	hash_key
	movl	%eax, %eax
	movq	%rax, -8(%rbp)
.L31:
	.loc 3 65 0
	movq	-24(%rbp), %rax
	movq	-8(%rbp), %rdx
	movq	%rdx, (%rax)
	.loc 3 66 0
	movq	-24(%rbp), %rax
	movq	-48(%rbp), %rdx
	movq	%rdx, 32(%rax)
	.loc 3 67 0
	movq	-24(%rbp), %rax
	movq	-56(%rbp), %rdx
	movq	%rdx, 40(%rax)
	.loc 3 68 0
	movq	-24(%rbp), %rdx
	movq	-16(%rbp), %rax
	movq	%rdx, %rsi
	movq	%rax, %rdi
	call	rbtree_insert
	.loc 3 69 0
	nop
	leave
	.cfi_def_cfa 7, 8
	ret
	.cfi_endproc
.LFE15:
	.size	map_insert, .-map_insert
	.globl	map_find
	.type	map_find, @function
map_find:
.LFB16:
	.loc 3 70 0
	.cfi_startproc
	pushq	%rbp
	.cfi_def_cfa_offset 16
	.cfi_offset 6, -16
	movq	%rsp, %rbp
	.cfi_def_cfa_register 6
	subq	$48, %rsp
	movq	%rdi, -40(%rbp)
	movq	%rsi, -48(%rbp)
	.loc 3 71 0
	movq	-40(%rbp), %rax
	movq	8(%rax), %rax
	movq	%rax, -24(%rbp)
	.loc 3 74 0
	movq	$0, -16(%rbp)
	.loc 3 75 0
	movq	-48(%rbp), %rax
	movq	(%rax), %rax
	cmpq	$3, %rax
	je	.L37
	cmpq	$3, %rax
	jg	.L38
	cmpq	$1, %rax
	jl	.L36
	jmp	.L39
.L38:
	cmpq	$4, %rax
	jne	.L36
.L39:
	.loc 3 79 0
	movq	-48(%rbp), %rax
	movq	8(%rax), %rax
	movq	%rax, -16(%rbp)
	jmp	.L36
.L37:
	.loc 3 81 0
	movq	-48(%rbp), %rax
	movq	8(%rax), %rax
	movq	%rax, %rdi
	call	stringlen
	movq	%rax, %rdx
	movq	-48(%rbp), %rax
	movq	8(%rax), %rax
	movq	%rdx, %rsi
	movq	%rax, %rdi
	call	hash_key
	movl	%eax, %eax
	movq	%rax, -16(%rbp)
	.loc 3 82 0
	nop
.L36:
	.loc 3 84 0
	movq	-24(%rbp), %rax
	movq	(%rax), %rax
	movq	%rax, -8(%rbp)
	.loc 3 85 0
	movq	-24(%rbp), %rax
	movq	8(%rax), %rax
	movq	%rax, -32(%rbp)
	.loc 3 87 0
	jmp	.L40
.L45:
	.loc 3 89 0
	movq	-8(%rbp), %rax
	movq	(%rax), %rax
	cmpq	%rax, -16(%rbp)
	je	.L41
	.loc 3 90 0
	movq	-8(%rbp), %rax
	movq	(%rax), %rax
	cmpq	%rax, -16(%rbp)
	jnb	.L42
	.loc 3 90 0 is_stmt 0 discriminator 1
	movq	-8(%rbp), %rax
	movq	8(%rax), %rax
	jmp	.L43
.L42:
	.loc 3 90 0 discriminator 2
	movq	-8(%rbp), %rax
	movq	16(%rax), %rax
.L43:
	.loc 3 90 0 discriminator 4
	movq	%rax, -8(%rbp)
	.loc 3 91 0 is_stmt 1 discriminator 4
	jmp	.L40
.L41:
	.loc 3 93 0
	movq	-8(%rbp), %rax
	movq	32(%rax), %rax
	movq	(%rax), %rdx
	movq	-48(%rbp), %rax
	movq	(%rax), %rax
	cmpq	%rax, %rdx
	jne	.L40
	.loc 3 94 0
	movq	-8(%rbp), %rax
	movq	40(%rax), %rax
	jmp	.L44
.L40:
	.loc 3 87 0
	movq	-8(%rbp), %rax
	cmpq	-32(%rbp), %rax
	jne	.L45
	.loc 3 97 0
	movl	$0, %eax
.L44:
	.loc 3 98 0
	leave
	.cfi_def_cfa 7, 8
	ret
	.cfi_endproc
.LFE16:
	.size	map_find, .-map_find
	.globl	rbtree_insert
	.type	rbtree_insert, @function
rbtree_insert:
.LFB17:
	.loc 3 102 0
	.cfi_startproc
	pushq	%rbp
	.cfi_def_cfa_offset 16
	.cfi_offset 6, -16
	movq	%rsp, %rbp
	.cfi_def_cfa_register 6
	subq	$48, %rsp
	movq	%rdi, -40(%rbp)
	movq	%rsi, -48(%rbp)
	.loc 3 107 0
	movq	-40(%rbp), %rax
	movq	%rax, -8(%rbp)
	.loc 3 108 0
	movq	-40(%rbp), %rax
	movq	8(%rax), %rax
	movq	%rax, -16(%rbp)
	.loc 3 110 0
	movq	-8(%rbp), %rax
	movq	(%rax), %rax
	cmpq	%rax, -16(%rbp)
	jne	.L47
	.loc 3 111 0
	movq	-48(%rbp), %rax
	movq	$0, 24(%rax)
	.loc 3 112 0
	movq	-48(%rbp), %rax
	movq	-16(%rbp), %rdx
	movq	%rdx, 8(%rax)
	.loc 3 113 0
	movq	-48(%rbp), %rax
	movq	-16(%rbp), %rdx
	movq	%rdx, 16(%rax)
	.loc 3 114 0
	movq	-48(%rbp), %rax
	movb	$0, 48(%rax)
	.loc 3 115 0
	movq	-8(%rbp), %rax
	movq	-48(%rbp), %rdx
	movq	%rdx, (%rax)
	.loc 3 117 0
	jmp	.L46
.L47:
	.loc 3 120 0
	movq	-40(%rbp), %rax
	movq	16(%rax), %rax
	movq	-8(%rbp), %rdx
	movq	(%rdx), %rcx
	movq	-16(%rbp), %rdx
	movq	-48(%rbp), %rsi
	movq	%rcx, %rdi
	call	*%rax
.LVL0:
	.loc 3 124 0
	jmp	.L49
.L57:
	.loc 3 126 0
	movq	-48(%rbp), %rax
	movq	24(%rax), %rdx
	movq	-48(%rbp), %rax
	movq	24(%rax), %rax
	movq	24(%rax), %rax
	movq	8(%rax), %rax
	cmpq	%rax, %rdx
	jne	.L50
	.loc 3 127 0
	movq	-48(%rbp), %rax
	movq	24(%rax), %rax
	movq	24(%rax), %rax
	movq	16(%rax), %rax
	movq	%rax, -24(%rbp)
	.loc 3 129 0
	movq	-24(%rbp), %rax
	movzbl	48(%rax), %eax
	testb	%al, %al
	je	.L51
	.loc 3 130 0
	movq	-48(%rbp), %rax
	movq	24(%rax), %rax
	movb	$0, 48(%rax)
	.loc 3 131 0
	movq	-24(%rbp), %rax
	movb	$0, 48(%rax)
	.loc 3 132 0
	movq	-48(%rbp), %rax
	movq	24(%rax), %rax
	movq	24(%rax), %rax
	movb	$1, 48(%rax)
	.loc 3 133 0
	movq	-48(%rbp), %rax
	movq	24(%rax), %rax
	movq	24(%rax), %rax
	movq	%rax, -48(%rbp)
	jmp	.L49
.L51:
	.loc 3 136 0
	movq	-48(%rbp), %rax
	movq	24(%rax), %rax
	movq	16(%rax), %rax
	cmpq	%rax, -48(%rbp)
	jne	.L53
	.loc 3 137 0
	movq	-48(%rbp), %rax
	movq	24(%rax), %rax
	movq	%rax, -48(%rbp)
	.loc 3 138 0
	movq	-48(%rbp), %rdx
	movq	-16(%rbp), %rcx
	movq	-8(%rbp), %rax
	movq	%rcx, %rsi
	movq	%rax, %rdi
	call	rbtree_left_rotate
.L53:
	.loc 3 141 0
	movq	-48(%rbp), %rax
	movq	24(%rax), %rax
	movb	$0, 48(%rax)
	.loc 3 142 0
	movq	-48(%rbp), %rax
	movq	24(%rax), %rax
	movq	24(%rax), %rax
	movb	$1, 48(%rax)
	.loc 3 143 0
	movq	-48(%rbp), %rax
	movq	24(%rax), %rax
	movq	24(%rax), %rdx
	movq	-16(%rbp), %rcx
	movq	-8(%rbp), %rax
	movq	%rcx, %rsi
	movq	%rax, %rdi
	call	rbtree_right_rotate
	jmp	.L49
.L50:
	.loc 3 147 0
	movq	-48(%rbp), %rax
	movq	24(%rax), %rax
	movq	24(%rax), %rax
	movq	8(%rax), %rax
	movq	%rax, -24(%rbp)
	.loc 3 149 0
	movq	-24(%rbp), %rax
	movzbl	48(%rax), %eax
	testb	%al, %al
	je	.L54
	.loc 3 150 0
	movq	-48(%rbp), %rax
	movq	24(%rax), %rax
	movb	$0, 48(%rax)
	.loc 3 151 0
	movq	-24(%rbp), %rax
	movb	$0, 48(%rax)
	.loc 3 152 0
	movq	-48(%rbp), %rax
	movq	24(%rax), %rax
	movq	24(%rax), %rax
	movb	$1, 48(%rax)
	.loc 3 153 0
	movq	-48(%rbp), %rax
	movq	24(%rax), %rax
	movq	24(%rax), %rax
	movq	%rax, -48(%rbp)
	jmp	.L49
.L54:
	.loc 3 156 0
	movq	-48(%rbp), %rax
	movq	24(%rax), %rax
	movq	8(%rax), %rax
	cmpq	%rax, -48(%rbp)
	jne	.L55
	.loc 3 157 0
	movq	-48(%rbp), %rax
	movq	24(%rax), %rax
	movq	%rax, -48(%rbp)
	.loc 3 158 0
	movq	-48(%rbp), %rdx
	movq	-16(%rbp), %rcx
	movq	-8(%rbp), %rax
	movq	%rcx, %rsi
	movq	%rax, %rdi
	call	rbtree_right_rotate
.L55:
	.loc 3 161 0
	movq	-48(%rbp), %rax
	movq	24(%rax), %rax
	movb	$0, 48(%rax)
	.loc 3 162 0
	movq	-48(%rbp), %rax
	movq	24(%rax), %rax
	movq	24(%rax), %rax
	movb	$1, 48(%rax)
	.loc 3 163 0
	movq	-48(%rbp), %rax
	movq	24(%rax), %rax
	movq	24(%rax), %rdx
	movq	-16(%rbp), %rcx
	movq	-8(%rbp), %rax
	movq	%rcx, %rsi
	movq	%rax, %rdi
	call	rbtree_left_rotate
.L49:
	.loc 3 124 0
	movq	-8(%rbp), %rax
	movq	(%rax), %rax
	cmpq	%rax, -48(%rbp)
	je	.L56
	.loc 3 124 0 is_stmt 0 discriminator 1
	movq	-48(%rbp), %rax
	movq	24(%rax), %rax
	movzbl	48(%rax), %eax
	testb	%al, %al
	jne	.L57
.L56:
	.loc 3 168 0 is_stmt 1
	movq	-8(%rbp), %rax
	movq	(%rax), %rax
	movb	$0, 48(%rax)
.L46:
	.loc 3 169 0
	leave
	.cfi_def_cfa 7, 8
	ret
	.cfi_endproc
.LFE17:
	.size	rbtree_insert, .-rbtree_insert
	.globl	rbtree_insert_value
	.type	rbtree_insert_value, @function
rbtree_insert_value:
.LFB18:
	.loc 3 175 0
	.cfi_startproc
	pushq	%rbp
	.cfi_def_cfa_offset 16
	.cfi_offset 6, -16
	movq	%rsp, %rbp
	.cfi_def_cfa_register 6
	movq	%rdi, -24(%rbp)
	movq	%rsi, -32(%rbp)
	movq	%rdx, -40(%rbp)
.L63:
	.loc 3 180 0
	movq	-32(%rbp), %rax
	movq	(%rax), %rdx
	movq	-24(%rbp), %rax
	movq	(%rax), %rax
	cmpq	%rax, %rdx
	jnb	.L59
	.loc 3 180 0 is_stmt 0 discriminator 1
	movq	-24(%rbp), %rax
	addq	$8, %rax
	jmp	.L60
.L59:
	.loc 3 180 0 discriminator 2
	movq	-24(%rbp), %rax
	addq	$16, %rax
.L60:
	.loc 3 180 0 discriminator 4
	movq	%rax, -8(%rbp)
	.loc 3 182 0 is_stmt 1 discriminator 4
	movq	-8(%rbp), %rax
	movq	(%rax), %rax
	cmpq	%rax, -40(%rbp)
	je	.L65
	.loc 3 186 0
	movq	-8(%rbp), %rax
	movq	(%rax), %rax
	movq	%rax, -24(%rbp)
	.loc 3 180 0
	jmp	.L63
.L65:
	.loc 3 183 0
	nop
	.loc 3 189 0
	movq	-8(%rbp), %rax
	movq	-32(%rbp), %rdx
	movq	%rdx, (%rax)
	.loc 3 190 0
	movq	-32(%rbp), %rax
	movq	-24(%rbp), %rdx
	movq	%rdx, 24(%rax)
	.loc 3 191 0
	movq	-32(%rbp), %rax
	movq	-40(%rbp), %rdx
	movq	%rdx, 8(%rax)
	.loc 3 192 0
	movq	-32(%rbp), %rax
	movq	-40(%rbp), %rdx
	movq	%rdx, 16(%rax)
	.loc 3 193 0
	movq	-32(%rbp), %rax
	movb	$1, 48(%rax)
	.loc 3 194 0
	nop
	popq	%rbp
	.cfi_def_cfa 7, 8
	ret
	.cfi_endproc
.LFE18:
	.size	rbtree_insert_value, .-rbtree_insert_value
	.globl	rbtree_insert_timer_value
	.type	rbtree_insert_timer_value, @function
rbtree_insert_timer_value:
.LFB19:
	.loc 3 200 0
	.cfi_startproc
	pushq	%rbp
	.cfi_def_cfa_offset 16
	.cfi_offset 6, -16
	movq	%rsp, %rbp
	.cfi_def_cfa_register 6
	movq	%rdi, -24(%rbp)
	movq	%rsi, -32(%rbp)
	movq	%rdx, -40(%rbp)
.L69:
	.loc 3 214 0
	movq	-24(%rbp), %rax
	addq	$16, %rax
	movq	%rax, -8(%rbp)
	.loc 3 217 0
	movq	-8(%rbp), %rax
	movq	(%rax), %rax
	cmpq	%rax, -40(%rbp)
	je	.L71
	.loc 3 221 0
	movq	-8(%rbp), %rax
	movq	(%rax), %rax
	movq	%rax, -24(%rbp)
	.loc 3 214 0
	jmp	.L69
.L71:
	.loc 3 218 0
	nop
	.loc 3 224 0
	movq	-8(%rbp), %rax
	movq	-32(%rbp), %rdx
	movq	%rdx, (%rax)
	.loc 3 225 0
	movq	-32(%rbp), %rax
	movq	-24(%rbp), %rdx
	movq	%rdx, 24(%rax)
	.loc 3 226 0
	movq	-32(%rbp), %rax
	movq	-40(%rbp), %rdx
	movq	%rdx, 8(%rax)
	.loc 3 227 0
	movq	-32(%rbp), %rax
	movq	-40(%rbp), %rdx
	movq	%rdx, 16(%rax)
	.loc 3 228 0
	movq	-32(%rbp), %rax
	movb	$1, 48(%rax)
	.loc 3 229 0
	nop
	popq	%rbp
	.cfi_def_cfa 7, 8
	ret
	.cfi_endproc
.LFE19:
	.size	rbtree_insert_timer_value, .-rbtree_insert_timer_value
	.globl	rbtree_delete
	.type	rbtree_delete, @function
rbtree_delete:
.LFB20:
	.loc 3 234 0
	.cfi_startproc
	pushq	%rbp
	.cfi_def_cfa_offset 16
	.cfi_offset 6, -16
	movq	%rsp, %rbp
	.cfi_def_cfa_register 6
	subq	$64, %rsp
	movq	%rdi, -56(%rbp)
	movq	%rsi, -64(%rbp)
	.loc 3 240 0
	movq	-56(%rbp), %rax
	movq	%rax, -32(%rbp)
	.loc 3 241 0
	movq	-56(%rbp), %rax
	movq	8(%rax), %rax
	movq	%rax, -40(%rbp)
	.loc 3 243 0
	movq	-64(%rbp), %rax
	movq	8(%rax), %rax
	cmpq	%rax, -40(%rbp)
	jne	.L73
	.loc 3 244 0
	movq	-64(%rbp), %rax
	movq	16(%rax), %rax
	movq	%rax, -16(%rbp)
	.loc 3 245 0
	movq	-64(%rbp), %rax
	movq	%rax, -8(%rbp)
	jmp	.L74
.L73:
	.loc 3 247 0
	movq	-64(%rbp), %rax
	movq	16(%rax), %rax
	cmpq	%rax, -40(%rbp)
	jne	.L75
	.loc 3 248 0
	movq	-64(%rbp), %rax
	movq	8(%rax), %rax
	movq	%rax, -16(%rbp)
	.loc 3 249 0
	movq	-64(%rbp), %rax
	movq	%rax, -8(%rbp)
	jmp	.L74
.L75:
	.loc 3 252 0
	movq	-64(%rbp), %rax
	movq	16(%rax), %rax
	movq	-40(%rbp), %rdx
	movq	%rdx, %rsi
	movq	%rax, %rdi
	call	rbtree_min
	movq	%rax, -8(%rbp)
	.loc 3 253 0
	movq	-8(%rbp), %rax
	movq	16(%rax), %rax
	movq	%rax, -16(%rbp)
.L74:
	.loc 3 256 0
	movq	-32(%rbp), %rax
	movq	(%rax), %rax
	cmpq	%rax, -8(%rbp)
	jne	.L76
	.loc 3 257 0
	movq	-32(%rbp), %rax
	movq	-16(%rbp), %rdx
	movq	%rdx, (%rax)
	.loc 3 258 0
	movq	-16(%rbp), %rax
	movb	$0, 48(%rax)
	.loc 3 261 0
	movq	-64(%rbp), %rax
	movq	$0, 8(%rax)
	.loc 3 262 0
	movq	-64(%rbp), %rax
	movq	$0, 16(%rax)
	.loc 3 263 0
	movq	-64(%rbp), %rax
	movq	$0, 24(%rax)
	.loc 3 264 0
	movq	-64(%rbp), %rax
	movq	$0, (%rax)
	.loc 3 266 0
	jmp	.L72
.L76:
	.loc 3 269 0
	movq	-8(%rbp), %rax
	movzbl	48(%rax), %eax
	movzbl	%al, %eax
	movl	%eax, -44(%rbp)
	.loc 3 271 0
	movq	-8(%rbp), %rax
	movq	24(%rax), %rax
	movq	8(%rax), %rax
	cmpq	%rax, -8(%rbp)
	jne	.L78
	.loc 3 272 0
	movq	-8(%rbp), %rax
	movq	24(%rax), %rax
	movq	-16(%rbp), %rdx
	movq	%rdx, 8(%rax)
	jmp	.L79
.L78:
	.loc 3 275 0
	movq	-8(%rbp), %rax
	movq	24(%rax), %rax
	movq	-16(%rbp), %rdx
	movq	%rdx, 16(%rax)
.L79:
	.loc 3 278 0
	movq	-8(%rbp), %rax
	cmpq	-64(%rbp), %rax
	jne	.L80
	.loc 3 280 0
	movq	-8(%rbp), %rax
	movq	24(%rax), %rdx
	movq	-16(%rbp), %rax
	movq	%rdx, 24(%rax)
	jmp	.L81
.L80:
	.loc 3 284 0
	movq	-8(%rbp), %rax
	movq	24(%rax), %rax
	cmpq	%rax, -64(%rbp)
	jne	.L82
	.loc 3 285 0
	movq	-16(%rbp), %rax
	movq	-8(%rbp), %rdx
	movq	%rdx, 24(%rax)
	jmp	.L83
.L82:
	.loc 3 288 0
	movq	-8(%rbp), %rax
	movq	24(%rax), %rdx
	movq	-16(%rbp), %rax
	movq	%rdx, 24(%rax)
.L83:
	.loc 3 291 0
	movq	-64(%rbp), %rax
	movq	8(%rax), %rdx
	movq	-8(%rbp), %rax
	movq	%rdx, 8(%rax)
	.loc 3 292 0
	movq	-64(%rbp), %rax
	movq	16(%rax), %rdx
	movq	-8(%rbp), %rax
	movq	%rdx, 16(%rax)
	.loc 3 293 0
	movq	-64(%rbp), %rax
	movq	24(%rax), %rdx
	movq	-8(%rbp), %rax
	movq	%rdx, 24(%rax)
	.loc 3 294 0
	movq	-64(%rbp), %rax
	movzbl	48(%rax), %edx
	movq	-8(%rbp), %rax
	movb	%dl, 48(%rax)
	.loc 3 296 0
	movq	-32(%rbp), %rax
	movq	(%rax), %rax
	cmpq	%rax, -64(%rbp)
	jne	.L84
	.loc 3 297 0
	movq	-32(%rbp), %rax
	movq	-8(%rbp), %rdx
	movq	%rdx, (%rax)
	jmp	.L85
.L84:
	.loc 3 300 0
	movq	-64(%rbp), %rax
	movq	24(%rax), %rax
	movq	8(%rax), %rax
	cmpq	%rax, -64(%rbp)
	jne	.L86
	.loc 3 301 0
	movq	-64(%rbp), %rax
	movq	24(%rax), %rax
	movq	-8(%rbp), %rdx
	movq	%rdx, 8(%rax)
	jmp	.L85
.L86:
	.loc 3 303 0
	movq	-64(%rbp), %rax
	movq	24(%rax), %rax
	movq	-8(%rbp), %rdx
	movq	%rdx, 16(%rax)
.L85:
	.loc 3 307 0
	movq	-8(%rbp), %rax
	movq	8(%rax), %rax
	cmpq	%rax, -40(%rbp)
	je	.L87
	.loc 3 308 0
	movq	-8(%rbp), %rax
	movq	8(%rax), %rax
	movq	-8(%rbp), %rdx
	movq	%rdx, 24(%rax)
.L87:
	.loc 3 311 0
	movq	-8(%rbp), %rax
	movq	16(%rax), %rax
	cmpq	%rax, -40(%rbp)
	je	.L81
	.loc 3 312 0
	movq	-8(%rbp), %rax
	movq	16(%rax), %rax
	movq	-8(%rbp), %rdx
	movq	%rdx, 24(%rax)
.L81:
	.loc 3 317 0
	movq	-64(%rbp), %rax
	movq	$0, 8(%rax)
	.loc 3 318 0
	movq	-64(%rbp), %rax
	movq	$0, 16(%rax)
	.loc 3 319 0
	movq	-64(%rbp), %rax
	movq	$0, 24(%rax)
	.loc 3 320 0
	movq	-64(%rbp), %rax
	movq	$0, (%rax)
	.loc 3 322 0
	cmpl	$0, -44(%rbp)
	jne	.L100
	.loc 3 328 0
	jmp	.L89
.L99:
	.loc 3 330 0
	movq	-16(%rbp), %rax
	movq	24(%rax), %rax
	movq	8(%rax), %rax
	cmpq	%rax, -16(%rbp)
	jne	.L90
	.loc 3 331 0
	movq	-16(%rbp), %rax
	movq	24(%rax), %rax
	movq	16(%rax), %rax
	movq	%rax, -24(%rbp)
	.loc 3 333 0
	movq	-24(%rbp), %rax
	movzbl	48(%rax), %eax
	testb	%al, %al
	je	.L91
	.loc 3 334 0
	movq	-24(%rbp), %rax
	movb	$0, 48(%rax)
	.loc 3 335 0
	movq	-16(%rbp), %rax
	movq	24(%rax), %rax
	movb	$1, 48(%rax)
	.loc 3 336 0
	movq	-16(%rbp), %rax
	movq	24(%rax), %rdx
	movq	-40(%rbp), %rcx
	movq	-32(%rbp), %rax
	movq	%rcx, %rsi
	movq	%rax, %rdi
	call	rbtree_left_rotate
	.loc 3 337 0
	movq	-16(%rbp), %rax
	movq	24(%rax), %rax
	movq	16(%rax), %rax
	movq	%rax, -24(%rbp)
.L91:
	.loc 3 340 0
	movq	-24(%rbp), %rax
	movq	8(%rax), %rax
	movzbl	48(%rax), %eax
	testb	%al, %al
	jne	.L92
	.loc 3 340 0 is_stmt 0 discriminator 1
	movq	-24(%rbp), %rax
	movq	16(%rax), %rax
	movzbl	48(%rax), %eax
	testb	%al, %al
	jne	.L92
	.loc 3 341 0 is_stmt 1
	movq	-24(%rbp), %rax
	movb	$1, 48(%rax)
	.loc 3 342 0
	movq	-16(%rbp), %rax
	movq	24(%rax), %rax
	movq	%rax, -16(%rbp)
	jmp	.L89
.L92:
	.loc 3 345 0
	movq	-24(%rbp), %rax
	movq	16(%rax), %rax
	movzbl	48(%rax), %eax
	testb	%al, %al
	jne	.L94
	.loc 3 346 0
	movq	-24(%rbp), %rax
	movq	8(%rax), %rax
	movb	$0, 48(%rax)
	.loc 3 347 0
	movq	-24(%rbp), %rax
	movb	$1, 48(%rax)
	.loc 3 348 0
	movq	-24(%rbp), %rdx
	movq	-40(%rbp), %rcx
	movq	-32(%rbp), %rax
	movq	%rcx, %rsi
	movq	%rax, %rdi
	call	rbtree_right_rotate
	.loc 3 349 0
	movq	-16(%rbp), %rax
	movq	24(%rax), %rax
	movq	16(%rax), %rax
	movq	%rax, -24(%rbp)
.L94:
	.loc 3 352 0
	movq	-16(%rbp), %rax
	movq	24(%rax), %rax
	movzbl	48(%rax), %edx
	movq	-24(%rbp), %rax
	movb	%dl, 48(%rax)
	.loc 3 353 0
	movq	-16(%rbp), %rax
	movq	24(%rax), %rax
	movb	$0, 48(%rax)
	.loc 3 354 0
	movq	-24(%rbp), %rax
	movq	16(%rax), %rax
	movb	$0, 48(%rax)
	.loc 3 355 0
	movq	-16(%rbp), %rax
	movq	24(%rax), %rdx
	movq	-40(%rbp), %rcx
	movq	-32(%rbp), %rax
	movq	%rcx, %rsi
	movq	%rax, %rdi
	call	rbtree_left_rotate
	.loc 3 356 0
	movq	-32(%rbp), %rax
	movq	(%rax), %rax
	movq	%rax, -16(%rbp)
	jmp	.L89
.L90:
	.loc 3 360 0
	movq	-16(%rbp), %rax
	movq	24(%rax), %rax
	movq	8(%rax), %rax
	movq	%rax, -24(%rbp)
	.loc 3 362 0
	movq	-24(%rbp), %rax
	movzbl	48(%rax), %eax
	testb	%al, %al
	je	.L95
	.loc 3 363 0
	movq	-24(%rbp), %rax
	movb	$0, 48(%rax)
	.loc 3 364 0
	movq	-16(%rbp), %rax
	movq	24(%rax), %rax
	movb	$1, 48(%rax)
	.loc 3 365 0
	movq	-16(%rbp), %rax
	movq	24(%rax), %rdx
	movq	-40(%rbp), %rcx
	movq	-32(%rbp), %rax
	movq	%rcx, %rsi
	movq	%rax, %rdi
	call	rbtree_right_rotate
	.loc 3 366 0
	movq	-16(%rbp), %rax
	movq	24(%rax), %rax
	movq	8(%rax), %rax
	movq	%rax, -24(%rbp)
.L95:
	.loc 3 369 0
	movq	-24(%rbp), %rax
	movq	8(%rax), %rax
	movzbl	48(%rax), %eax
	testb	%al, %al
	jne	.L96
	.loc 3 369 0 is_stmt 0 discriminator 1
	movq	-24(%rbp), %rax
	movq	16(%rax), %rax
	movzbl	48(%rax), %eax
	testb	%al, %al
	jne	.L96
	.loc 3 370 0 is_stmt 1
	movq	-24(%rbp), %rax
	movb	$1, 48(%rax)
	.loc 3 371 0
	movq	-16(%rbp), %rax
	movq	24(%rax), %rax
	movq	%rax, -16(%rbp)
	jmp	.L89
.L96:
	.loc 3 374 0
	movq	-24(%rbp), %rax
	movq	8(%rax), %rax
	movzbl	48(%rax), %eax
	testb	%al, %al
	jne	.L97
	.loc 3 375 0
	movq	-24(%rbp), %rax
	movq	16(%rax), %rax
	movb	$0, 48(%rax)
	.loc 3 376 0
	movq	-24(%rbp), %rax
	movb	$1, 48(%rax)
	.loc 3 377 0
	movq	-24(%rbp), %rdx
	movq	-40(%rbp), %rcx
	movq	-32(%rbp), %rax
	movq	%rcx, %rsi
	movq	%rax, %rdi
	call	rbtree_left_rotate
	.loc 3 378 0
	movq	-16(%rbp), %rax
	movq	24(%rax), %rax
	movq	8(%rax), %rax
	movq	%rax, -24(%rbp)
.L97:
	.loc 3 381 0
	movq	-16(%rbp), %rax
	movq	24(%rax), %rax
	movzbl	48(%rax), %edx
	movq	-24(%rbp), %rax
	movb	%dl, 48(%rax)
	.loc 3 382 0
	movq	-16(%rbp), %rax
	movq	24(%rax), %rax
	movb	$0, 48(%rax)
	.loc 3 383 0
	movq	-24(%rbp), %rax
	movq	8(%rax), %rax
	movb	$0, 48(%rax)
	.loc 3 384 0
	movq	-16(%rbp), %rax
	movq	24(%rax), %rdx
	movq	-40(%rbp), %rcx
	movq	-32(%rbp), %rax
	movq	%rcx, %rsi
	movq	%rax, %rdi
	call	rbtree_right_rotate
	.loc 3 385 0
	movq	-32(%rbp), %rax
	movq	(%rax), %rax
	movq	%rax, -16(%rbp)
.L89:
	.loc 3 328 0
	movq	-32(%rbp), %rax
	movq	(%rax), %rax
	cmpq	%rax, -16(%rbp)
	je	.L98
	.loc 3 328 0 is_stmt 0 discriminator 1
	movq	-16(%rbp), %rax
	movzbl	48(%rax), %eax
	testb	%al, %al
	je	.L99
.L98:
	.loc 3 390 0 is_stmt 1
	movq	-16(%rbp), %rax
	movb	$0, 48(%rax)
	jmp	.L72
.L100:
	.loc 3 323 0
	nop
.L72:
	.loc 3 391 0
	leave
	.cfi_def_cfa 7, 8
	ret
	.cfi_endproc
.LFE20:
	.size	rbtree_delete, .-rbtree_delete
	.type	rbtree_left_rotate, @function
rbtree_left_rotate:
.LFB21:
	.loc 3 397 0
	.cfi_startproc
	pushq	%rbp
	.cfi_def_cfa_offset 16
	.cfi_offset 6, -16
	movq	%rsp, %rbp
	.cfi_def_cfa_register 6
	movq	%rdi, -24(%rbp)
	movq	%rsi, -32(%rbp)
	movq	%rdx, -40(%rbp)
	.loc 3 400 0
	movq	-40(%rbp), %rax
	movq	16(%rax), %rax
	movq	%rax, -8(%rbp)
	.loc 3 401 0
	movq	-8(%rbp), %rax
	movq	8(%rax), %rdx
	movq	-40(%rbp), %rax
	movq	%rdx, 16(%rax)
	.loc 3 403 0
	movq	-8(%rbp), %rax
	movq	8(%rax), %rax
	cmpq	%rax, -32(%rbp)
	je	.L102
	.loc 3 404 0
	movq	-8(%rbp), %rax
	movq	8(%rax), %rax
	movq	-40(%rbp), %rdx
	movq	%rdx, 24(%rax)
.L102:
	.loc 3 407 0
	movq	-40(%rbp), %rax
	movq	24(%rax), %rdx
	movq	-8(%rbp), %rax
	movq	%rdx, 24(%rax)
	.loc 3 409 0
	movq	-24(%rbp), %rax
	movq	(%rax), %rax
	cmpq	%rax, -40(%rbp)
	jne	.L103
	.loc 3 410 0
	movq	-24(%rbp), %rax
	movq	-8(%rbp), %rdx
	movq	%rdx, (%rax)
	jmp	.L104
.L103:
	.loc 3 412 0
	movq	-40(%rbp), %rax
	movq	24(%rax), %rax
	movq	8(%rax), %rax
	cmpq	%rax, -40(%rbp)
	jne	.L105
	.loc 3 413 0
	movq	-40(%rbp), %rax
	movq	24(%rax), %rax
	movq	-8(%rbp), %rdx
	movq	%rdx, 8(%rax)
	jmp	.L104
.L105:
	.loc 3 416 0
	movq	-40(%rbp), %rax
	movq	24(%rax), %rax
	movq	-8(%rbp), %rdx
	movq	%rdx, 16(%rax)
.L104:
	.loc 3 419 0
	movq	-8(%rbp), %rax
	movq	-40(%rbp), %rdx
	movq	%rdx, 8(%rax)
	.loc 3 420 0
	movq	-40(%rbp), %rax
	movq	-8(%rbp), %rdx
	movq	%rdx, 24(%rax)
	.loc 3 421 0
	nop
	popq	%rbp
	.cfi_def_cfa 7, 8
	ret
	.cfi_endproc
.LFE21:
	.size	rbtree_left_rotate, .-rbtree_left_rotate
	.type	rbtree_right_rotate, @function
rbtree_right_rotate:
.LFB22:
	.loc 3 427 0
	.cfi_startproc
	pushq	%rbp
	.cfi_def_cfa_offset 16
	.cfi_offset 6, -16
	movq	%rsp, %rbp
	.cfi_def_cfa_register 6
	movq	%rdi, -24(%rbp)
	movq	%rsi, -32(%rbp)
	movq	%rdx, -40(%rbp)
	.loc 3 430 0
	movq	-40(%rbp), %rax
	movq	8(%rax), %rax
	movq	%rax, -8(%rbp)
	.loc 3 431 0
	movq	-8(%rbp), %rax
	movq	16(%rax), %rdx
	movq	-40(%rbp), %rax
	movq	%rdx, 8(%rax)
	.loc 3 433 0
	movq	-8(%rbp), %rax
	movq	16(%rax), %rax
	cmpq	%rax, -32(%rbp)
	je	.L107
	.loc 3 434 0
	movq	-8(%rbp), %rax
	movq	16(%rax), %rax
	movq	-40(%rbp), %rdx
	movq	%rdx, 24(%rax)
.L107:
	.loc 3 437 0
	movq	-40(%rbp), %rax
	movq	24(%rax), %rdx
	movq	-8(%rbp), %rax
	movq	%rdx, 24(%rax)
	.loc 3 439 0
	movq	-24(%rbp), %rax
	movq	(%rax), %rax
	cmpq	%rax, -40(%rbp)
	jne	.L108
	.loc 3 440 0
	movq	-24(%rbp), %rax
	movq	-8(%rbp), %rdx
	movq	%rdx, (%rax)
	jmp	.L109
.L108:
	.loc 3 442 0
	movq	-40(%rbp), %rax
	movq	24(%rax), %rax
	movq	16(%rax), %rax
	cmpq	%rax, -40(%rbp)
	jne	.L110
	.loc 3 443 0
	movq	-40(%rbp), %rax
	movq	24(%rax), %rax
	movq	-8(%rbp), %rdx
	movq	%rdx, 16(%rax)
	jmp	.L109
.L110:
	.loc 3 446 0
	movq	-40(%rbp), %rax
	movq	24(%rax), %rax
	movq	-8(%rbp), %rdx
	movq	%rdx, 8(%rax)
.L109:
	.loc 3 449 0
	movq	-8(%rbp), %rax
	movq	-40(%rbp), %rdx
	movq	%rdx, 16(%rax)
	.loc 3 450 0
	movq	-40(%rbp), %rax
	movq	-8(%rbp), %rdx
	movq	%rdx, 24(%rax)
	.loc 3 451 0
	nop
	popq	%rbp
	.cfi_def_cfa 7, 8
	ret
	.cfi_endproc
.LFE22:
	.size	rbtree_right_rotate, .-rbtree_right_rotate
	.globl	rbtree_next
	.type	rbtree_next, @function
rbtree_next:
.LFB23:
	.loc 3 456 0
	.cfi_startproc
	pushq	%rbp
	.cfi_def_cfa_offset 16
	.cfi_offset 6, -16
	movq	%rsp, %rbp
	.cfi_def_cfa_register 6
	subq	$48, %rsp
	movq	%rdi, -40(%rbp)
	movq	%rsi, -48(%rbp)
	.loc 3 459 0
	movq	-40(%rbp), %rax
	movq	8(%rax), %rax
	movq	%rax, -8(%rbp)
	.loc 3 461 0
	movq	-48(%rbp), %rax
	movq	16(%rax), %rax
	cmpq	%rax, -8(%rbp)
	je	.L112
	.loc 3 462 0
	movq	-48(%rbp), %rax
	movq	16(%rax), %rax
	movq	-8(%rbp), %rdx
	movq	%rdx, %rsi
	movq	%rax, %rdi
	call	rbtree_min
	jmp	.L113
.L112:
	.loc 3 465 0
	movq	-40(%rbp), %rax
	movq	(%rax), %rax
	movq	%rax, -16(%rbp)
.L116:
	.loc 3 468 0
	movq	-48(%rbp), %rax
	movq	24(%rax), %rax
	movq	%rax, -24(%rbp)
	.loc 3 470 0
	movq	-48(%rbp), %rax
	cmpq	-16(%rbp), %rax
	jne	.L114
	.loc 3 471 0
	movl	$0, %eax
	jmp	.L113
.L114:
	.loc 3 474 0
	movq	-24(%rbp), %rax
	movq	8(%rax), %rax
	cmpq	%rax, -48(%rbp)
	jne	.L115
	.loc 3 475 0
	movq	-24(%rbp), %rax
	jmp	.L113
.L115:
	.loc 3 478 0
	movq	-24(%rbp), %rax
	movq	%rax, -48(%rbp)
	.loc 3 468 0
	jmp	.L116
.L113:
	.loc 3 480 0
	leave
	.cfi_def_cfa 7, 8
	ret
	.cfi_endproc
.LFE23:
	.size	rbtree_next, .-rbtree_next
.Letext0:
	.file 4 "/usr/lib/gcc/x86_64-linux-gnu/7/include/stddef.h"
	.file 5 "/usr/include/x86_64-linux-gnu/bits/types.h"
	.file 6 "/usr/include/x86_64-linux-gnu/bits/libio.h"
	.file 7 "/usr/include/stdio.h"
	.file 8 "/usr/include/x86_64-linux-gnu/bits/sys_errlist.h"
	.file 9 "/usr/include/x86_64-linux-gnu/sys/types.h"
	.file 10 "/usr/include/unistd.h"
	.file 11 "/usr/include/x86_64-linux-gnu/bits/getopt_core.h"
	.file 12 "/usr/include/time.h"
	.file 13 "/home/xiaodo/c++/colang/src/gc/Hugmem.h"
	.file 14 "/home/xiaodo/c++/colang/src/gc/gc.h"
	.file 15 "/home/xiaodo/c++/colang/src/internal/Value.h"
	.file 16 "/usr/include/x86_64-linux-gnu/bits/stdint-uintn.h"
	.section	.note.GNU-stack,"",@progbits
