	.file	"malloc.c"
	.text
.Ltext0:
	.globl	list_head
	.data
	#.bss
	.align 8
	.type	list_head, @object
	.size	list_head, 8
list_head:
	.zero	8
	.text
	.globl	free
	.type	free, @function
free:
.LFB0:
	.file 1 "/home/xiaodo/c++/colang/src/crt/malloc.c"
	.loc 1 21 0
	.cfi_startproc
	pushq	%rbp
	.cfi_def_cfa_offset 16
	.cfi_offset 6, -16
	movq	%rsp, %rbp
	.cfi_def_cfa_register 6
	movq	%rdi, -24(%rbp)
	.loc 1 22 0
	movq	-24(%rbp), %rax
	subq	$32, %rax
	movq	%rax, -8(%rbp)
	.loc 1 23 0
	movq	-8(%rbp), %rax
	movl	(%rax), %eax
	cmpl	$-842150451, %eax
	jne	.L6
	.loc 1 28 0
	movq	-8(%rbp), %rax
	movl	$-1414812757, (%rax)
	.loc 1 29 0
	movq	-8(%rbp), %rax
	movq	24(%rax), %rax
	testq	%rax, %rax
	je	.L4
	.loc 1 29 0 is_stmt 0 discriminator 1
	movq	-8(%rbp), %rax
	movq	24(%rax), %rax
	movl	(%rax), %eax
	cmpl	$-1414812757, %eax
	jne	.L4
	.loc 1 32 0 is_stmt 1
	movq	-8(%rbp), %rax
	movq	24(%rax), %rax
	movq	-8(%rbp), %rdx
	movq	16(%rdx), %rdx
	movq	%rdx, 16(%rax)
	.loc 1 33 0
	movq	-8(%rbp), %rax
	movq	16(%rax), %rax
	testq	%rax, %rax
	je	.L5
	.loc 1 34 0
	movq	-8(%rbp), %rax
	movq	16(%rax), %rax
	movq	-8(%rbp), %rdx
	movq	24(%rdx), %rdx
	movq	%rdx, 24(%rax)
.L5:
	.loc 1 35 0
	movq	-8(%rbp), %rax
	movq	24(%rax), %rax
	movq	8(%rax), %rcx
	movq	-8(%rbp), %rax
	movq	8(%rax), %rdx
	movq	-8(%rbp), %rax
	movq	24(%rax), %rax
	addq	%rcx, %rdx
	movq	%rdx, 8(%rax)
	.loc 1 37 0
	movq	-8(%rbp), %rax
	movq	24(%rax), %rax
	movq	%rax, -8(%rbp)
.L4:
	.loc 1 40 0
	movq	-8(%rbp), %rax
	movq	16(%rax), %rax
	testq	%rax, %rax
	je	.L1
	.loc 1 40 0 is_stmt 0 discriminator 1
	movq	-8(%rbp), %rax
	movq	16(%rax), %rax
	movl	(%rax), %eax
	cmpl	$-1414812757, %eax
	jne	.L1
	.loc 1 43 0 is_stmt 1
	movq	-8(%rbp), %rax
	movq	8(%rax), %rdx
	movq	-8(%rbp), %rax
	movq	16(%rax), %rax
	movq	8(%rax), %rax
	addq	%rax, %rdx
	movq	-8(%rbp), %rax
	movq	%rdx, 8(%rax)
	.loc 1 44 0
	movq	-8(%rbp), %rax
	movq	16(%rax), %rax
	movq	16(%rax), %rdx
	movq	-8(%rbp), %rax
	movq	%rdx, 16(%rax)
	jmp	.L1
.L6:
	.loc 1 25 0
	nop
.L1:
	.loc 1 46 0
	popq	%rbp
	.cfi_def_cfa 7, 8
	ret
	.cfi_endproc
.LFE0:
	.size	free, .-free
	.globl	realloc
	.type	realloc, @function
realloc:
.LFB1:
	.loc 1 48 0
	.cfi_startproc
	pushq	%rbp
	.cfi_def_cfa_offset 16
	.cfi_offset 6, -16
	movq	%rsp, %rbp
	.cfi_def_cfa_register 6
	subq	$32, %rsp
	movq	%rdi, -24(%rbp)
	movq	%rsi, -32(%rbp)
	.loc 1 49 0
	cmpq	$0, -24(%rbp)
	jne	.L8
	.loc 1 54 0
	movq	-32(%rbp), %rax
	movq	%rax, %rdi
	call	malloc
	jmp	.L9
.L8:
	.loc 1 60 0
	movq	-32(%rbp), %rax
	movq	%rax, %rdi
	call	malloc
	movq	%rax, -8(%rbp)
	.loc 1 61 0
	movq	-32(%rbp), %rdx
	movq	-24(%rbp), %rcx
	movq	-8(%rbp), %rax
	movq	%rcx, %rsi
	movq	%rax, %rdi
	call	memcpy@PLT
	.loc 1 62 0
	movq	-24(%rbp), %rax
	movq	%rax, %rdi
	call	free
	.loc 1 63 0
	movq	-8(%rbp), %rax
.L9:
	.loc 1 64 0
	leave
	.cfi_def_cfa 7, 8
	ret
	.cfi_endproc
.LFE1:
	.size	realloc, .-realloc
	.globl	malloc
	.type	malloc, @function
malloc:
.LFB2:
	.loc 1 66 0
	.cfi_startproc
	pushq	%rbp
	.cfi_def_cfa_offset 16
	.cfi_offset 6, -16
	movq	%rsp, %rbp
	.cfi_def_cfa_register 6
	movq	%rdi, -24(%rbp)
	.loc 1 68 0
	cmpq	$0, -24(%rbp)
	jne	.L11
	.loc 1 70 0
	movl	$0, %eax
	jmp	.L12
.L11:
	.loc 1 73 0
	movq	list_head(%rip), %rax
	movq	%rax, -8(%rbp)
	.loc 1 74 0
	jmp	.L13
.L17:
	.loc 1 76 0
	movq	-8(%rbp), %rax
	movl	(%rax), %eax
	cmpl	$-842150451, %eax
	jne	.L14
	.loc 1 78 0
	movq	-8(%rbp), %rax
	movq	16(%rax), %rax
	movq	%rax, -8(%rbp)
	.loc 1 79 0
	jmp	.L13
.L14:
	.loc 1 82 0
	movq	-8(%rbp), %rax
	movq	8(%rax), %rax
	movq	-24(%rbp), %rdx
	addq	$32, %rdx
	cmpq	%rdx, %rax
	jbe	.L15
	.loc 1 83 0
	movq	-8(%rbp), %rax
	movq	8(%rax), %rax
	movq	-24(%rbp), %rdx
	addq	$64, %rdx
	cmpq	%rdx, %rax
	ja	.L15
	.loc 1 85 0
	movq	-8(%rbp), %rax
	movl	$-842150451, (%rax)
.L15:
	.loc 1 88 0
	movq	-8(%rbp), %rax
	movq	8(%rax), %rax
	movq	-24(%rbp), %rdx
	addq	$64, %rdx
	cmpq	%rdx, %rax
	jbe	.L16
.LBB2:
	.loc 1 91 0
	movq	-24(%rbp), %rax
	leaq	32(%rax), %rdx
	movq	-8(%rbp), %rax
	addq	%rdx, %rax
	movq	%rax, -16(%rbp)
	.loc 1 92 0
	movq	-16(%rbp), %rax
	movq	-8(%rbp), %rdx
	movq	%rdx, 24(%rax)
	.loc 1 93 0
	movq	-8(%rbp), %rax
	movq	16(%rax), %rdx
	movq	-16(%rbp), %rax
	movq	%rdx, 16(%rax)
	.loc 1 94 0
	movq	-16(%rbp), %rax
	movl	$-1414812757, (%rax)
	.loc 1 95 0
	movq	-8(%rbp), %rax
	movq	8(%rax), %rax
	subq	-24(%rbp), %rax
	leaq	32(%rax), %rdx
	movq	-16(%rbp), %rax
	movq	%rdx, 8(%rax)
	.loc 1 96 0
	movq	-8(%rbp), %rax
	movq	-16(%rbp), %rdx
	movq	%rdx, 16(%rax)
	.loc 1 97 0
	movq	-24(%rbp), %rax
	leaq	32(%rax), %rdx
	movq	-8(%rbp), %rax
	movq	%rdx, 8(%rax)
	.loc 1 98 0
	movq	-8(%rbp), %rax
	movl	$-842150451, (%rax)
	.loc 1 99 0
	movq	-8(%rbp), %rax
	addq	$32, %rax
	jmp	.L12
.L16:
.LBE2:
	.loc 1 101 0
	movq	-8(%rbp), %rax
	movq	16(%rax), %rax
	movq	%rax, -8(%rbp)
.L13:
	.loc 1 74 0
	cmpq	$0, -8(%rbp)
	jne	.L17
	.loc 1 104 0
	movl	$0, %eax
.L12:
	.loc 1 105 0
	popq	%rbp
	.cfi_def_cfa 7, 8
	ret
	.cfi_endproc
.LFE2:
	.size	malloc, .-malloc
	.type	brk, @function
brk:
.LFB3:
	.loc 1 110 0
	.cfi_startproc
	pushq	%rbp
	.cfi_def_cfa_offset 16
	.cfi_offset 6, -16
	movq	%rsp, %rbp
	.cfi_def_cfa_register 6
	movq	%rdi, -24(%rbp)
	.loc 1 111 0
	movq	$0, -8(%rbp)
	.loc 1 115 0
#APP
# 115 "/home/xiaodo/c++/colang/src/colib/malloc.c" 1
	movq $45, %rax   
	movq -24(%rbp), %rbx  
	int $0x80		
	movq %rax,%rax  
	
# 0 "" 2
#NO_APP
	movq	%rax, -8(%rbp)
	.loc 1 120 0
	nop
	popq	%rbp
	.cfi_def_cfa 7, 8
	ret
	.cfi_endproc
.LFE3:
	.size	brk, .-brk
	.globl	mini_crt_init_heap
	.type	mini_crt_init_heap, @function
mini_crt_init_heap:
.LFB4:
	.loc 1 128 0
	.cfi_startproc
	pushq	%rbp
	.cfi_def_cfa_offset 16
	.cfi_offset 6, -16
	movq	%rsp, %rbp
	.cfi_def_cfa_register 6
	subq	$32, %rsp
	.loc 1 129 0
	movq	$0, -8(%rbp)
	.loc 1 130 0
	movq	$0, -16(%rbp)
	.loc 1 132 0
	movq	$33554432, -24(%rbp)
	.loc 1 142 0
	movl	$0, %edi
	call	brk
	movq	%rax, -8(%rbp)
	.loc 1 143 0
	movq	-8(%rbp), %rdx
	movq	-24(%rbp), %rax
	addq	%rdx, %rax
	movq	%rax, -32(%rbp)
	.loc 1 144 0
	movq	-32(%rbp), %rax
	movq	%rax, %rdi
	call	brk
	movq	%rax, -32(%rbp)
	.loc 1 145 0
	cmpq	$0, -32(%rbp)
	jne	.L20
	.loc 1 147 0
	movl	$0, %eax
	jmp	.L21
.L20:
	.loc 1 151 0
	movq	-8(%rbp), %rax
	movq	%rax, -16(%rbp)
	.loc 1 153 0
	movq	-16(%rbp), %rax
	movq	-24(%rbp), %rdx
	movq	%rdx, 8(%rax)
	.loc 1 154 0
	movq	-16(%rbp), %rax
	movl	$-1414812757, (%rax)
	.loc 1 155 0
	movq	-16(%rbp), %rax
	movq	$0, 16(%rax)
	.loc 1 156 0
	movq	-16(%rbp), %rax
	movq	$0, 24(%rax)
	.loc 1 158 0
	movq	-16(%rbp), %rax
	movq	%rax, list_head(%rip)
	.loc 1 159 0
	movl	$1, %eax
.L21:
	.loc 1 160 0
	leave
	.cfi_def_cfa 7, 8
	ret
	.cfi_endproc
.LFE4:
	.size	mini_crt_init_heap, .-mini_crt_init_heap
.Letext0:
	.section	.note.GNU-stack,"",@progbits
