	.file	"Value.c"
	.text
.Ltext0:
	.type	stringlen, @function
stringlen:
.LFB5:
	.file 1 "/home/xiaodo/c++/colang/src/internal/String.h"
	.loc 1 55 0
	.cfi_startproc
	pushq	%rbp
	.cfi_def_cfa_offset 16
	.cfi_offset 6, -16
	movq	%rsp, %rbp
	.cfi_def_cfa_register 6
	movq	%rdi, -24(%rbp)
	.loc 1 56 0
	movq	-24(%rbp), %rax
	subq	$1, %rax
	movzbl	(%rax), %eax
	movb	%al, -1(%rbp)
	.loc 1 57 0
	movzbl	-1(%rbp), %eax
	andl	$7, %eax
	cmpl	$4, %eax
	ja	.L2
	movl	%eax, %eax
	leaq	0(,%rax,4), %rdx
	leaq	.L4(%rip), %rax
	movl	(%rdx,%rax), %eax
	movslq	%eax, %rdx
	leaq	.L4(%rip), %rax
	addq	%rdx, %rax
	jmp	*%rax
#	.section	.rodata
	.align 4
	.align 4
.L4:
	.long	.L3-.L4
	.long	.L5-.L4
	.long	.L6-.L4
	.long	.L7-.L4
	.long	.L8-.L4
	.text
.L3:
	.loc 1 59 0
	movzbl	-1(%rbp), %eax
	shrb	$3, %al
	movzbl	%al, %eax
	jmp	.L9
.L5:
	.loc 1 61 0
	movq	-24(%rbp), %rax
	subq	$3, %rax
	movzbl	(%rax), %eax
	movzbl	%al, %eax
	jmp	.L9
.L6:
	.loc 1 63 0
	movq	-24(%rbp), %rax
	subq	$5, %rax
	movzwl	(%rax), %eax
	movzwl	%ax, %eax
	jmp	.L9
.L7:
	.loc 1 65 0
	movq	-24(%rbp), %rax
	subq	$9, %rax
	movl	(%rax), %eax
	movl	%eax, %eax
	jmp	.L9
.L8:
	.loc 1 67 0
	movq	-24(%rbp), %rax
	subq	$17, %rax
	movq	(%rax), %rax
	jmp	.L9
.L2:
	.loc 1 69 0
	movl	$0, %eax
.L9:
	.loc 1 70 0
	popq	%rbp
	.cfi_def_cfa 7, 8
	ret
	.cfi_endproc
.LFE5:
	.size	stringlen, .-stringlen
	.globl	value_plus
	.type	value_plus, @function
value_plus:
.LFB12:
	.file 2 "/home/xiaodo/c++/colang/src/internal/Value.c"
	.loc 2 15 0
	.cfi_startproc
	pushq	%rbp
	.cfi_def_cfa_offset 16
	.cfi_offset 6, -16
	movq	%rsp, %rbp
	.cfi_def_cfa_register 6
	subq	$32, %rsp
	movq	%rdi, -24(%rbp)
	movq	%rsi, -32(%rbp)
	.loc 2 16 0
	movl	$16, %edi
	call	gc_malloc@PLT
	movq	%rax, -8(%rbp)
	.loc 2 17 0
	cmpq	$0, -24(%rbp)
	jne	.L11
	.loc 2 18 0
	movq	-32(%rbp), %rcx
	movq	-8(%rbp), %rax
	movl	$16, %edx
	movq	%rcx, %rsi
	movq	%rax, %rdi
	call	memcpy@PLT
	.loc 2 19 0
	movq	-8(%rbp), %rax
	jmp	.L12
.L11:
	.loc 2 22 0
	movq	-24(%rbp), %rax
	movq	(%rax), %rax
	cmpq	$3, %rax
	je	.L13
	.loc 2 22 0 is_stmt 0 discriminator 1
	movq	-32(%rbp), %rax
	movq	(%rax), %rax
	cmpq	$3, %rax
	jne	.L14
.L13:
	.loc 2 23 0 is_stmt 1
	movq	-8(%rbp), %rax
	movq	$3, (%rax)
	.loc 2 24 0
	movq	-32(%rbp), %rdx
	movq	-24(%rbp), %rax
	movq	%rdx, %rsi
	movq	%rax, %rdi
	call	value_string_plus@PLT
	movq	%rax, %rdx
	movq	-8(%rbp), %rax
	movq	%rdx, 8(%rax)
	.loc 2 25 0
	movq	-8(%rbp), %rax
	jmp	.L12
.L14:
	.loc 2 28 0
	movq	-24(%rbp), %rax
	movq	(%rax), %rax
	cmpq	$1, %rax
	je	.L15
	.loc 2 28 0 is_stmt 0 discriminator 1
	movq	-32(%rbp), %rax
	movq	(%rax), %rax
	cmpq	$1, %rax
	jne	.L16
.L15:
	.loc 2 29 0 is_stmt 1
	movq	-8(%rbp), %rax
	movq	$1, (%rax)
	.loc 2 30 0
	movq	-32(%rbp), %rdx
	movq	-24(%rbp), %rax
	movq	%rdx, %rsi
	movq	%rax, %rdi
	call	value_int_plus@PLT
	movq	%rax, %rdx
	movq	-8(%rbp), %rax
	movq	%rdx, 8(%rax)
	.loc 2 31 0
	movq	-8(%rbp), %rax
	jmp	.L12
.L16:
	.loc 2 33 0
	movl	$1, %edi
	call	exit@PLT
.L12:
	.loc 2 34 0
	leave
	.cfi_def_cfa 7, 8
	ret
	.cfi_endproc
.LFE12:
	.size	value_plus, .-value_plus
	.globl	value_minus
	.type	value_minus, @function
value_minus:
.LFB13:
	.loc 2 41 0
	.cfi_startproc
	pushq	%rbp
	.cfi_def_cfa_offset 16
	.cfi_offset 6, -16
	movq	%rsp, %rbp
	.cfi_def_cfa_register 6
	subq	$32, %rsp
	movq	%rdi, -24(%rbp)
	movq	%rsi, -32(%rbp)
	.loc 2 42 0
	movl	$16, %edi
	call	gc_malloc@PLT
	movq	%rax, -8(%rbp)
	.loc 2 43 0
	cmpq	$0, -24(%rbp)
	jne	.L18
	.loc 2 44 0
	movq	-32(%rbp), %rcx
	movq	-8(%rbp), %rax
	movl	$16, %edx
	movq	%rcx, %rsi
	movq	%rax, %rdi
	call	memcpy@PLT
	.loc 2 45 0
	movq	-8(%rbp), %rax
	jmp	.L19
.L18:
	.loc 2 48 0
	movq	-24(%rbp), %rax
	movq	(%rax), %rax
	cmpq	$3, %rax
	je	.L20
	.loc 2 48 0 is_stmt 0 discriminator 1
	movq	-32(%rbp), %rax
	movq	(%rax), %rax
	cmpq	$3, %rax
	jne	.L21
.L20:
	.loc 2 49 0 is_stmt 1
	movq	-8(%rbp), %rax
	movq	$3, (%rax)
	.loc 2 50 0
	movq	-32(%rbp), %rdx
	movq	-24(%rbp), %rax
	movq	%rdx, %rsi
	movq	%rax, %rdi
	call	value_string_minus@PLT
	movq	%rax, %rdx
	movq	-8(%rbp), %rax
	movq	%rdx, 8(%rax)
	.loc 2 51 0
	movq	-8(%rbp), %rax
	jmp	.L19
.L21:
	.loc 2 54 0
	movq	-24(%rbp), %rax
	movq	(%rax), %rax
	cmpq	$1, %rax
	je	.L22
	.loc 2 54 0 is_stmt 0 discriminator 1
	movq	-32(%rbp), %rax
	movq	(%rax), %rax
	cmpq	$1, %rax
	jne	.L23
.L22:
	.loc 2 55 0 is_stmt 1
	movq	-8(%rbp), %rax
	movq	$1, (%rax)
	.loc 2 56 0
	movq	-32(%rbp), %rdx
	movq	-24(%rbp), %rax
	movq	%rdx, %rsi
	movq	%rax, %rdi
	call	value_int_minus@PLT
	movq	%rax, %rdx
	movq	-8(%rbp), %rax
	movq	%rdx, 8(%rax)
	.loc 2 57 0
	movq	-8(%rbp), %rax
	jmp	.L19
.L23:
	.loc 2 59 0
	movl	$1, %edi
	call	exit@PLT
.L19:
	.loc 2 60 0
	leave
	.cfi_def_cfa 7, 8
	ret
	.cfi_endproc
.LFE13:
	.size	value_minus, .-value_minus
	.globl	value_mul
	.type	value_mul, @function
value_mul:
.LFB14:
	.loc 2 67 0
	.cfi_startproc
	pushq	%rbp
	.cfi_def_cfa_offset 16
	.cfi_offset 6, -16
	movq	%rsp, %rbp
	.cfi_def_cfa_register 6
	subq	$32, %rsp
	movq	%rdi, -24(%rbp)
	movq	%rsi, -32(%rbp)
	.loc 2 68 0
	movl	$16, %edi
	call	gc_malloc@PLT
	movq	%rax, -8(%rbp)
	.loc 2 69 0
	cmpq	$0, -24(%rbp)
	jne	.L25
	.loc 2 70 0
	movq	-32(%rbp), %rcx
	movq	-8(%rbp), %rax
	movl	$16, %edx
	movq	%rcx, %rsi
	movq	%rax, %rdi
	call	memcpy@PLT
	.loc 2 71 0
	movq	-8(%rbp), %rax
	jmp	.L26
.L25:
	.loc 2 74 0
	movq	-24(%rbp), %rax
	movq	(%rax), %rax
	cmpq	$3, %rax
	je	.L27
	.loc 2 74 0 is_stmt 0 discriminator 1
	movq	-32(%rbp), %rax
	movq	(%rax), %rax
	cmpq	$3, %rax
	jne	.L28
.L27:
	.loc 2 75 0 is_stmt 1
	movq	-8(%rbp), %rax
	movq	$3, (%rax)
	.loc 2 76 0
	movq	-32(%rbp), %rdx
	movq	-24(%rbp), %rax
	movq	%rdx, %rsi
	movq	%rax, %rdi
	call	value_string_mul@PLT
	movq	%rax, %rdx
	movq	-8(%rbp), %rax
	movq	%rdx, 8(%rax)
	.loc 2 77 0
	movq	-8(%rbp), %rax
	jmp	.L26
.L28:
	.loc 2 80 0
	movq	-24(%rbp), %rax
	movq	(%rax), %rax
	cmpq	$1, %rax
	je	.L29
	.loc 2 80 0 is_stmt 0 discriminator 1
	movq	-32(%rbp), %rax
	movq	(%rax), %rax
	cmpq	$1, %rax
	jne	.L30
.L29:
	.loc 2 81 0 is_stmt 1
	movq	-8(%rbp), %rax
	movq	$1, (%rax)
	.loc 2 82 0
	movq	-32(%rbp), %rdx
	movq	-24(%rbp), %rax
	movq	%rdx, %rsi
	movq	%rax, %rdi
	call	value_int_mul@PLT
	movq	%rax, %rdx
	movq	-8(%rbp), %rax
	movq	%rdx, 8(%rax)
	.loc 2 83 0
	movq	-8(%rbp), %rax
	jmp	.L26
.L30:
	.loc 2 85 0
	movl	$1, %edi
	call	exit@PLT
.L26:
	.loc 2 86 0
	leave
	.cfi_def_cfa 7, 8
	ret
	.cfi_endproc
.LFE14:
	.size	value_mul, .-value_mul
	.globl	value_div
	.type	value_div, @function
value_div:
.LFB15:
	.loc 2 93 0
	.cfi_startproc
	pushq	%rbp
	.cfi_def_cfa_offset 16
	.cfi_offset 6, -16
	movq	%rsp, %rbp
	.cfi_def_cfa_register 6
	subq	$32, %rsp
	movq	%rdi, -24(%rbp)
	movq	%rsi, -32(%rbp)
	.loc 2 94 0
	movl	$16, %edi
	call	gc_malloc@PLT
	movq	%rax, -8(%rbp)
	.loc 2 95 0
	cmpq	$0, -24(%rbp)
	jne	.L32
	.loc 2 96 0
	movq	-32(%rbp), %rcx
	movq	-8(%rbp), %rax
	movl	$16, %edx
	movq	%rcx, %rsi
	movq	%rax, %rdi
	call	memcpy@PLT
	.loc 2 97 0
	movq	-8(%rbp), %rax
	jmp	.L33
.L32:
	.loc 2 100 0
	movq	-24(%rbp), %rax
	movq	(%rax), %rax
	cmpq	$3, %rax
	je	.L34
	.loc 2 100 0 is_stmt 0 discriminator 1
	movq	-32(%rbp), %rax
	movq	(%rax), %rax
	cmpq	$3, %rax
	jne	.L35
.L34:
	.loc 2 101 0 is_stmt 1
	movq	-8(%rbp), %rax
	movq	$1, (%rax)
	.loc 2 102 0
	movq	-32(%rbp), %rdx
	movq	-24(%rbp), %rax
	movq	%rdx, %rsi
	movq	%rax, %rdi
	call	value_string_div@PLT
	movq	%rax, %rdx
	movq	-8(%rbp), %rax
	movq	%rdx, 8(%rax)
	.loc 2 103 0
	movq	-8(%rbp), %rax
	jmp	.L33
.L35:
	.loc 2 106 0
	movq	-24(%rbp), %rax
	movq	(%rax), %rax
	cmpq	$1, %rax
	je	.L36
	.loc 2 106 0 is_stmt 0 discriminator 1
	movq	-32(%rbp), %rax
	movq	(%rax), %rax
	cmpq	$1, %rax
	jne	.L37
.L36:
	.loc 2 107 0 is_stmt 1
	movq	-8(%rbp), %rax
	movq	$1, (%rax)
	.loc 2 108 0
	movq	-32(%rbp), %rdx
	movq	-24(%rbp), %rax
	movq	%rdx, %rsi
	movq	%rax, %rdi
	call	value_int_div@PLT
	movq	%rax, %rdx
	movq	-8(%rbp), %rax
	movq	%rdx, 8(%rax)
	.loc 2 109 0
	movq	-8(%rbp), %rax
	jmp	.L33
.L37:
	.loc 2 111 0
	movl	$1, %edi
	call	exit@PLT
.L33:
	.loc 2 112 0
	leave
	.cfi_def_cfa 7, 8
	ret
	.cfi_endproc
.LFE15:
	.size	value_div, .-value_div
	.globl	value_bitand
	.type	value_bitand, @function
value_bitand:
.LFB16:
	.loc 2 119 0
	.cfi_startproc
	pushq	%rbp
	.cfi_def_cfa_offset 16
	.cfi_offset 6, -16
	movq	%rsp, %rbp
	.cfi_def_cfa_register 6
	subq	$32, %rsp
	movq	%rdi, -24(%rbp)
	movq	%rsi, -32(%rbp)
	.loc 2 120 0
	movl	$16, %edi
	call	gc_malloc@PLT
	movq	%rax, -8(%rbp)
	.loc 2 121 0
	cmpq	$0, -24(%rbp)
	jne	.L39
	.loc 2 122 0
	movq	-32(%rbp), %rcx
	movq	-8(%rbp), %rax
	movl	$16, %edx
	movq	%rcx, %rsi
	movq	%rax, %rdi
	call	memcpy@PLT
	.loc 2 123 0
	movq	-8(%rbp), %rax
	jmp	.L40
.L39:
	.loc 2 126 0
	movq	-24(%rbp), %rax
	movq	(%rax), %rax
	cmpq	$3, %rax
	je	.L41
	.loc 2 126 0 is_stmt 0 discriminator 1
	movq	-32(%rbp), %rax
	movq	(%rax), %rax
	cmpq	$3, %rax
	jne	.L42
.L41:
	.loc 2 127 0 is_stmt 1
	movq	-8(%rbp), %rax
	movq	$1, (%rax)
	.loc 2 128 0
	movq	-32(%rbp), %rdx
	movq	-24(%rbp), %rax
	movq	%rdx, %rsi
	movq	%rax, %rdi
	call	value_string_bitand@PLT
	movq	%rax, %rdx
	movq	-8(%rbp), %rax
	movq	%rdx, 8(%rax)
	.loc 2 129 0
	movq	-8(%rbp), %rax
	jmp	.L40
.L42:
	.loc 2 132 0
	movq	-24(%rbp), %rax
	movq	(%rax), %rax
	cmpq	$1, %rax
	je	.L43
	.loc 2 132 0 is_stmt 0 discriminator 1
	movq	-32(%rbp), %rax
	movq	(%rax), %rax
	cmpq	$1, %rax
	jne	.L44
.L43:
	.loc 2 133 0 is_stmt 1
	movq	-8(%rbp), %rax
	movq	$1, (%rax)
	.loc 2 134 0
	movq	-32(%rbp), %rdx
	movq	-24(%rbp), %rax
	movq	%rdx, %rsi
	movq	%rax, %rdi
	call	value_int_bitand@PLT
	movq	%rax, %rdx
	movq	-8(%rbp), %rax
	movq	%rdx, 8(%rax)
	.loc 2 135 0
	movq	-8(%rbp), %rax
	jmp	.L40
.L44:
	.loc 2 137 0
	movl	$1, %edi
	call	exit@PLT
.L40:
	.loc 2 138 0
	leave
	.cfi_def_cfa 7, 8
	ret
	.cfi_endproc
.LFE16:
	.size	value_bitand, .-value_bitand
	.globl	value_bitor
	.type	value_bitor, @function
value_bitor:
.LFB17:
	.loc 2 145 0
	.cfi_startproc
	pushq	%rbp
	.cfi_def_cfa_offset 16
	.cfi_offset 6, -16
	movq	%rsp, %rbp
	.cfi_def_cfa_register 6
	subq	$32, %rsp
	movq	%rdi, -24(%rbp)
	movq	%rsi, -32(%rbp)
	.loc 2 146 0
	movl	$16, %edi
	call	gc_malloc@PLT
	movq	%rax, -8(%rbp)
	.loc 2 147 0
	cmpq	$0, -24(%rbp)
	jne	.L46
	.loc 2 148 0
	movq	-32(%rbp), %rcx
	movq	-8(%rbp), %rax
	movl	$16, %edx
	movq	%rcx, %rsi
	movq	%rax, %rdi
	call	memcpy@PLT
	.loc 2 149 0
	movq	-8(%rbp), %rax
	jmp	.L47
.L46:
	.loc 2 152 0
	movq	-24(%rbp), %rax
	movq	(%rax), %rax
	cmpq	$3, %rax
	je	.L48
	.loc 2 152 0 is_stmt 0 discriminator 1
	movq	-32(%rbp), %rax
	movq	(%rax), %rax
	cmpq	$3, %rax
	jne	.L49
.L48:
	.loc 2 153 0 is_stmt 1
	movq	-8(%rbp), %rax
	movq	$1, (%rax)
	.loc 2 154 0
	movq	-32(%rbp), %rdx
	movq	-24(%rbp), %rax
	movq	%rdx, %rsi
	movq	%rax, %rdi
	call	value_string_bitor@PLT
	movq	%rax, %rdx
	movq	-8(%rbp), %rax
	movq	%rdx, 8(%rax)
	.loc 2 155 0
	movq	-8(%rbp), %rax
	jmp	.L47
.L49:
	.loc 2 158 0
	movq	-24(%rbp), %rax
	movq	(%rax), %rax
	cmpq	$1, %rax
	je	.L50
	.loc 2 158 0 is_stmt 0 discriminator 1
	movq	-32(%rbp), %rax
	movq	(%rax), %rax
	cmpq	$1, %rax
	jne	.L51
.L50:
	.loc 2 159 0 is_stmt 1
	movq	-8(%rbp), %rax
	movq	$1, (%rax)
	.loc 2 160 0
	movq	-32(%rbp), %rdx
	movq	-24(%rbp), %rax
	movq	%rdx, %rsi
	movq	%rax, %rdi
	call	value_int_bitor@PLT
	movq	%rax, %rdx
	movq	-8(%rbp), %rax
	movq	%rdx, 8(%rax)
	.loc 2 161 0
	movq	-8(%rbp), %rax
	jmp	.L47
.L51:
	.loc 2 163 0
	movl	$1, %edi
	call	exit@PLT
.L47:
	.loc 2 164 0
	leave
	.cfi_def_cfa 7, 8
	ret
	.cfi_endproc
.LFE17:
	.size	value_bitor, .-value_bitor
	.globl	value_shift_left
	.type	value_shift_left, @function
value_shift_left:
.LFB18:
	.loc 2 171 0
	.cfi_startproc
	pushq	%rbp
	.cfi_def_cfa_offset 16
	.cfi_offset 6, -16
	movq	%rsp, %rbp
	.cfi_def_cfa_register 6
	subq	$32, %rsp
	movq	%rdi, -24(%rbp)
	movq	%rsi, -32(%rbp)
	.loc 2 172 0
	movl	$16, %edi
	call	gc_malloc@PLT
	movq	%rax, -8(%rbp)
	.loc 2 173 0
	cmpq	$0, -24(%rbp)
	jne	.L53
	.loc 2 174 0
	movq	-32(%rbp), %rcx
	movq	-8(%rbp), %rax
	movl	$16, %edx
	movq	%rcx, %rsi
	movq	%rax, %rdi
	call	memcpy@PLT
	.loc 2 175 0
	movq	-8(%rbp), %rax
	jmp	.L54
.L53:
	.loc 2 178 0
	movq	-24(%rbp), %rax
	movq	(%rax), %rax
	cmpq	$3, %rax
	je	.L55
	.loc 2 178 0 is_stmt 0 discriminator 1
	movq	-32(%rbp), %rax
	movq	(%rax), %rax
	cmpq	$3, %rax
	jne	.L56
.L55:
	.loc 2 179 0 is_stmt 1
	movq	-8(%rbp), %rax
	movq	$1, (%rax)
	.loc 2 180 0
	movq	-32(%rbp), %rdx
	movq	-24(%rbp), %rax
	movq	%rdx, %rsi
	movq	%rax, %rdi
	call	value_string_shift_left@PLT
	movq	%rax, %rdx
	movq	-8(%rbp), %rax
	movq	%rdx, 8(%rax)
	.loc 2 181 0
	movq	-8(%rbp), %rax
	jmp	.L54
.L56:
	.loc 2 184 0
	movq	-24(%rbp), %rax
	movq	(%rax), %rax
	cmpq	$1, %rax
	je	.L57
	.loc 2 184 0 is_stmt 0 discriminator 1
	movq	-32(%rbp), %rax
	movq	(%rax), %rax
	cmpq	$1, %rax
	jne	.L58
.L57:
	.loc 2 185 0 is_stmt 1
	movq	-8(%rbp), %rax
	movq	$1, (%rax)
	.loc 2 186 0
	movq	-32(%rbp), %rdx
	movq	-24(%rbp), %rax
	movq	%rdx, %rsi
	movq	%rax, %rdi
	call	value_int_shift_left@PLT
	movq	%rax, %rdx
	movq	-8(%rbp), %rax
	movq	%rdx, 8(%rax)
	.loc 2 187 0
	movq	-8(%rbp), %rax
	jmp	.L54
.L58:
	.loc 2 189 0
	movl	$1, %edi
	call	exit@PLT
.L54:
	.loc 2 190 0
	leave
	.cfi_def_cfa 7, 8
	ret
	.cfi_endproc
.LFE18:
	.size	value_shift_left, .-value_shift_left
	.globl	value_shift_right
	.type	value_shift_right, @function
value_shift_right:
.LFB19:
	.loc 2 197 0
	.cfi_startproc
	pushq	%rbp
	.cfi_def_cfa_offset 16
	.cfi_offset 6, -16
	movq	%rsp, %rbp
	.cfi_def_cfa_register 6
	subq	$32, %rsp
	movq	%rdi, -24(%rbp)
	movq	%rsi, -32(%rbp)
	.loc 2 198 0
	movl	$16, %edi
	call	gc_malloc@PLT
	movq	%rax, -8(%rbp)
	.loc 2 199 0
	cmpq	$0, -24(%rbp)
	jne	.L60
	.loc 2 200 0
	movq	-32(%rbp), %rcx
	movq	-8(%rbp), %rax
	movl	$16, %edx
	movq	%rcx, %rsi
	movq	%rax, %rdi
	call	memcpy@PLT
	.loc 2 201 0
	movq	-8(%rbp), %rax
	jmp	.L61
.L60:
	.loc 2 204 0
	movq	-24(%rbp), %rax
	movq	(%rax), %rax
	cmpq	$3, %rax
	je	.L62
	.loc 2 204 0 is_stmt 0 discriminator 1
	movq	-32(%rbp), %rax
	movq	(%rax), %rax
	cmpq	$3, %rax
	jne	.L63
.L62:
	.loc 2 205 0 is_stmt 1
	movq	-8(%rbp), %rax
	movq	$1, (%rax)
	.loc 2 206 0
	movq	-32(%rbp), %rdx
	movq	-24(%rbp), %rax
	movq	%rdx, %rsi
	movq	%rax, %rdi
	call	value_string_shift_right@PLT
	movq	%rax, %rdx
	movq	-8(%rbp), %rax
	movq	%rdx, 8(%rax)
	.loc 2 207 0
	movq	-8(%rbp), %rax
	jmp	.L61
.L63:
	.loc 2 210 0
	movq	-24(%rbp), %rax
	movq	(%rax), %rax
	cmpq	$1, %rax
	je	.L64
	.loc 2 210 0 is_stmt 0 discriminator 1
	movq	-32(%rbp), %rax
	movq	(%rax), %rax
	cmpq	$1, %rax
	jne	.L65
.L64:
	.loc 2 211 0 is_stmt 1
	movq	-8(%rbp), %rax
	movq	$1, (%rax)
	.loc 2 212 0
	movq	-32(%rbp), %rdx
	movq	-24(%rbp), %rax
	movq	%rdx, %rsi
	movq	%rax, %rdi
	call	value_int_shift_right@PLT
	movq	%rax, %rdx
	movq	-8(%rbp), %rax
	movq	%rdx, 8(%rax)
	.loc 2 213 0
	movq	-8(%rbp), %rax
	jmp	.L61
.L65:
	.loc 2 215 0
	movl	$1, %edi
	call	exit@PLT
.L61:
	.loc 2 216 0
	leave
	.cfi_def_cfa 7, 8
	ret
	.cfi_endproc
.LFE19:
	.size	value_shift_right, .-value_shift_right
	.globl	value_equal
	.type	value_equal, @function
value_equal:
.LFB20:
	.loc 2 223 0
	.cfi_startproc
	pushq	%rbp
	.cfi_def_cfa_offset 16
	.cfi_offset 6, -16
	movq	%rsp, %rbp
	.cfi_def_cfa_register 6
	subq	$48, %rsp
	movq	%rdi, -24(%rbp)
	movq	%rsi, -32(%rbp)
	movl	%edx, -36(%rbp)
	.loc 2 224 0
	movl	$16, %edi
	call	gc_malloc@PLT
	movq	%rax, -8(%rbp)
	.loc 2 225 0
	movq	-8(%rbp), %rax
	movq	$4, (%rax)
	.loc 2 226 0
	movq	-8(%rbp), %rax
	movq	$0, 8(%rax)
	.loc 2 228 0
	movq	-24(%rbp), %rax
	movq	(%rax), %rax
	cmpq	$3, %rax
	je	.L67
	.loc 2 228 0 is_stmt 0 discriminator 1
	movq	-32(%rbp), %rax
	movq	(%rax), %rax
	cmpq	$3, %rax
	jne	.L68
.L67:
	.loc 2 229 0 is_stmt 1
	movl	-36(%rbp), %edx
	movq	-32(%rbp), %rcx
	movq	-24(%rbp), %rax
	movq	%rcx, %rsi
	movq	%rax, %rdi
	call	value_string_equal@PLT
	cltq
	movq	%rax, %rdx
	movq	-8(%rbp), %rax
	movq	%rdx, 8(%rax)
	.loc 2 230 0
	movq	-8(%rbp), %rax
	jmp	.L69
.L68:
	.loc 2 233 0
	movq	-24(%rbp), %rax
	movq	(%rax), %rax
	cmpq	$1, %rax
	je	.L70
	.loc 2 233 0 is_stmt 0 discriminator 1
	movq	-32(%rbp), %rax
	movq	(%rax), %rax
	cmpq	$1, %rax
	jne	.L71
.L70:
	.loc 2 234 0 is_stmt 1
	movl	-36(%rbp), %edx
	movq	-32(%rbp), %rcx
	movq	-24(%rbp), %rax
	movq	%rcx, %rsi
	movq	%rax, %rdi
	call	value_int_equal@PLT
	cltq
	movq	%rax, %rdx
	movq	-8(%rbp), %rax
	movq	%rdx, 8(%rax)
.L71:
	.loc 2 236 0
	movq	-8(%rbp), %rax
.L69:
	.loc 2 237 0
	leave
	.cfi_def_cfa 7, 8
	ret
	.cfi_endproc
.LFE20:
	.size	value_equal, .-value_equal
	.globl	value_lowerthan
	.type	value_lowerthan, @function
value_lowerthan:
.LFB21:
	.loc 2 245 0
	.cfi_startproc
	pushq	%rbp
	.cfi_def_cfa_offset 16
	.cfi_offset 6, -16
	movq	%rsp, %rbp
	.cfi_def_cfa_register 6
	subq	$48, %rsp
	movq	%rdi, -24(%rbp)
	movq	%rsi, -32(%rbp)
	movl	%edx, -36(%rbp)
	.loc 2 246 0
	movl	$16, %edi
	call	gc_malloc@PLT
	movq	%rax, -8(%rbp)
	.loc 2 247 0
	movq	-8(%rbp), %rax
	movq	$4, (%rax)
	.loc 2 249 0
	movq	-8(%rbp), %rax
	movq	$1, 8(%rax)
	.loc 2 251 0
	movq	-24(%rbp), %rax
	movq	(%rax), %rax
	cmpq	$3, %rax
	je	.L73
	.loc 2 251 0 is_stmt 0 discriminator 1
	movq	-32(%rbp), %rax
	movq	(%rax), %rax
	cmpq	$3, %rax
	jne	.L74
.L73:
	.loc 2 252 0 is_stmt 1
	movl	-36(%rbp), %edx
	movq	-32(%rbp), %rcx
	movq	-24(%rbp), %rax
	movq	%rcx, %rsi
	movq	%rax, %rdi
	call	value_string_lowerthan@PLT
	cltq
	movq	%rax, %rdx
	movq	-8(%rbp), %rax
	movq	%rdx, 8(%rax)
	.loc 2 253 0
	movq	-8(%rbp), %rax
	jmp	.L75
.L74:
	.loc 2 256 0
	movq	-24(%rbp), %rax
	movq	(%rax), %rax
	cmpq	$1, %rax
	je	.L76
	.loc 2 256 0 is_stmt 0 discriminator 1
	movq	-32(%rbp), %rax
	movq	(%rax), %rax
	cmpq	$1, %rax
	jne	.L77
.L76:
	.loc 2 257 0 is_stmt 1
	movl	-36(%rbp), %edx
	movq	-32(%rbp), %rcx
	movq	-24(%rbp), %rax
	movq	%rcx, %rsi
	movq	%rax, %rdi
	call	value_int_lowerthan@PLT
	cltq
	movq	%rax, %rdx
	movq	-8(%rbp), %rax
	movq	%rdx, 8(%rax)
.L77:
	.loc 2 259 0
	movq	-8(%rbp), %rax
.L75:
	.loc 2 260 0
	leave
	.cfi_def_cfa 7, 8
	ret
	.cfi_endproc
.LFE21:
	.size	value_lowerthan, .-value_lowerthan
	.globl	value_greaterthan
	.type	value_greaterthan, @function
value_greaterthan:
.LFB22:
	.loc 2 268 0
	.cfi_startproc
	pushq	%rbp
	.cfi_def_cfa_offset 16
	.cfi_offset 6, -16
	movq	%rsp, %rbp
	.cfi_def_cfa_register 6
	subq	$48, %rsp
	movq	%rdi, -24(%rbp)
	movq	%rsi, -32(%rbp)
	movl	%edx, -36(%rbp)
	.loc 2 269 0
	movl	$16, %edi
	call	gc_malloc@PLT
	movq	%rax, -8(%rbp)
	.loc 2 270 0
	movq	-8(%rbp), %rax
	movq	$4, (%rax)
	.loc 2 272 0
	movq	-8(%rbp), %rax
	movq	$1, 8(%rax)
	.loc 2 274 0
	movq	-24(%rbp), %rax
	movq	(%rax), %rax
	cmpq	$3, %rax
	je	.L79
	.loc 2 274 0 is_stmt 0 discriminator 1
	movq	-32(%rbp), %rax
	movq	(%rax), %rax
	cmpq	$3, %rax
	jne	.L80
.L79:
	.loc 2 275 0 is_stmt 1
	movl	-36(%rbp), %edx
	movq	-32(%rbp), %rcx
	movq	-24(%rbp), %rax
	movq	%rcx, %rsi
	movq	%rax, %rdi
	call	value_string_greaterthan@PLT
	cltq
	movq	%rax, %rdx
	movq	-8(%rbp), %rax
	movq	%rdx, 8(%rax)
	.loc 2 276 0
	movq	-8(%rbp), %rax
	jmp	.L81
.L80:
	.loc 2 279 0
	movq	-24(%rbp), %rax
	movq	(%rax), %rax
	cmpq	$1, %rax
	je	.L82
	.loc 2 279 0 is_stmt 0 discriminator 1
	movq	-32(%rbp), %rax
	movq	(%rax), %rax
	cmpq	$1, %rax
	jne	.L83
.L82:
	.loc 2 280 0 is_stmt 1
	movl	-36(%rbp), %edx
	movq	-32(%rbp), %rcx
	movq	-24(%rbp), %rax
	movq	%rcx, %rsi
	movq	%rax, %rdi
	call	value_int_greaterthan@PLT
	cltq
	movq	%rax, %rdx
	movq	-8(%rbp), %rax
	movq	%rdx, 8(%rax)
.L83:
	.loc 2 282 0
	movq	-8(%rbp), %rax
.L81:
	.loc 2 283 0
	leave
	.cfi_def_cfa 7, 8
	ret
	.cfi_endproc
.LFE22:
	.size	value_greaterthan, .-value_greaterthan
	.globl	value_logand
	.type	value_logand, @function
value_logand:
.LFB23:
	.loc 2 291 0
	.cfi_startproc
	pushq	%rbp
	.cfi_def_cfa_offset 16
	.cfi_offset 6, -16
	movq	%rsp, %rbp
	.cfi_def_cfa_register 6
	subq	$32, %rsp
	movq	%rdi, -24(%rbp)
	movq	%rsi, -32(%rbp)
	.loc 2 292 0
	movl	$16, %edi
	call	gc_malloc@PLT
	movq	%rax, -8(%rbp)
	.loc 2 293 0
	movq	-8(%rbp), %rax
	movq	$4, (%rax)
	.loc 2 294 0
	movq	-24(%rbp), %rax
	movq	%rax, %rdi
	call	isTrue
	testl	%eax, %eax
	je	.L85
	.loc 2 294 0 is_stmt 0 discriminator 1
	movq	-32(%rbp), %rax
	movq	%rax, %rdi
	call	isTrue
	testl	%eax, %eax
	je	.L85
	.loc 2 294 0 discriminator 3
	movl	$1, %eax
	jmp	.L86
.L85:
	.loc 2 294 0 discriminator 4
	movl	$0, %eax
.L86:
	.loc 2 294 0 discriminator 6
	cltq
	movq	%rax, %rdx
	movq	-8(%rbp), %rax
	movq	%rdx, 8(%rax)
	.loc 2 295 0 is_stmt 1 discriminator 6
	movq	-8(%rbp), %rax
	.loc 2 296 0 discriminator 6
	leave
	.cfi_def_cfa 7, 8
	ret
	.cfi_endproc
.LFE23:
	.size	value_logand, .-value_logand
	.globl	value_logor
	.type	value_logor, @function
value_logor:
.LFB24:
	.loc 2 297 0
	.cfi_startproc
	pushq	%rbp
	.cfi_def_cfa_offset 16
	.cfi_offset 6, -16
	movq	%rsp, %rbp
	.cfi_def_cfa_register 6
	subq	$32, %rsp
	movq	%rdi, -24(%rbp)
	movq	%rsi, -32(%rbp)
	.loc 2 298 0
	movl	$16, %edi
	call	gc_malloc@PLT
	movq	%rax, -8(%rbp)
	.loc 2 299 0
	movq	-8(%rbp), %rax
	movq	$4, (%rax)
	.loc 2 300 0
	movq	-24(%rbp), %rax
	movq	%rax, %rdi
	call	isTrue
	testl	%eax, %eax
	jne	.L89
	.loc 2 300 0 is_stmt 0 discriminator 2
	movq	-32(%rbp), %rax
	movq	%rax, %rdi
	call	isTrue
	testl	%eax, %eax
	je	.L90
.L89:
	.loc 2 300 0 discriminator 3
	movl	$1, %eax
	jmp	.L91
.L90:
	.loc 2 300 0 discriminator 4
	movl	$0, %eax
.L91:
	.loc 2 300 0 discriminator 6
	cltq
	movq	%rax, %rdx
	movq	-8(%rbp), %rax
	movq	%rdx, 8(%rax)
	.loc 2 301 0 is_stmt 1 discriminator 6
	movq	-8(%rbp), %rax
	.loc 2 302 0 discriminator 6
	leave
	.cfi_def_cfa 7, 8
	ret
	.cfi_endproc
.LFE24:
	.size	value_logor, .-value_logor
#	.section	.rodata
	.align 8
.LC0:
	.string	"[kv_update] arr or map is invalid ,probably something wrong\n"
	.text
	.globl	kv_update
	.type	kv_update, @function
kv_update:
.LFB25:
	.loc 2 311 0
	.cfi_startproc
	pushq	%rbp
	.cfi_def_cfa_offset 16
	.cfi_offset 6, -16
	movq	%rsp, %rbp
	.cfi_def_cfa_register 6
	subq	$32, %rsp
	movq	%rdi, -8(%rbp)
	movq	%rsi, -16(%rbp)
	movq	%rdx, -24(%rbp)
	.loc 2 312 0
	movq	-8(%rbp), %rax
	movq	(%rax), %rax
	cmpq	$6, %rax
	jne	.L94
	.loc 2 313 0
	movq	-24(%rbp), %rdx
	movq	-16(%rbp), %rcx
	movq	-8(%rbp), %rax
	movq	%rcx, %rsi
	movq	%rax, %rdi
	call	arr_updateone@PLT
	jmp	.L93
.L94:
	.loc 2 315 0
	movq	-8(%rbp), %rax
	movq	(%rax), %rax
	cmpq	$7, %rax
	jne	.L96
	.loc 2 316 0
	movq	-24(%rbp), %rdx
	movq	-16(%rbp), %rcx
	movq	-8(%rbp), %rax
	movq	%rcx, %rsi
	movq	%rax, %rdi
	call	map_insert@PLT
	jmp	.L93
.L96:
	.loc 2 318 0
	leaq	.LC0(%rip), %rdi
	movl	$0, %eax
	call	printf@PLT
.L93:
	.loc 2 319 0
	leave
	.cfi_def_cfa 7, 8
	ret
	.cfi_endproc
.LFE25:
	.size	kv_update, .-kv_update
#	.section	.rodata
	.align 8
.LC1:
	.string	"[kv_get] arr or map is invalid ,probably something wrong\n"
	.text
	.globl	kv_get
	.type	kv_get, @function
kv_get:
.LFB26:
	.loc 2 326 0
	.cfi_startproc
	pushq	%rbp
	.cfi_def_cfa_offset 16
	.cfi_offset 6, -16
	movq	%rsp, %rbp
	.cfi_def_cfa_register 6
	subq	$16, %rsp
	movq	%rdi, -8(%rbp)
	movq	%rsi, -16(%rbp)
	.loc 2 327 0
	movq	-8(%rbp), %rax
	movq	(%rax), %rax
	cmpq	$6, %rax
	jne	.L98
	.loc 2 328 0
	movq	-16(%rbp), %rdx
	movq	-8(%rbp), %rax
	movq	%rdx, %rsi
	movq	%rax, %rdi
	call	arr_get@PLT
	jmp	.L97
.L98:
	.loc 2 330 0
	movq	-8(%rbp), %rax
	movq	(%rax), %rax
	cmpq	$7, %rax
	jne	.L100
	.loc 2 331 0
	movq	-16(%rbp), %rdx
	movq	-8(%rbp), %rax
	movq	%rdx, %rsi
	movq	%rax, %rdi
	call	map_find@PLT
	jmp	.L97
.L100:
	.loc 2 333 0
	leaq	.LC1(%rip), %rdi
	movl	$0, %eax
	call	printf@PLT
.L97:
	.loc 2 334 0
	leave
	.cfi_def_cfa 7, 8
	ret
	.cfi_endproc
.LFE26:
	.size	kv_get, .-kv_get
	.globl	isTrue
	.type	isTrue, @function
isTrue:
.LFB27:
	.loc 2 340 0
	.cfi_startproc
	pushq	%rbp
	.cfi_def_cfa_offset 16
	.cfi_offset 6, -16
	movq	%rsp, %rbp
	.cfi_def_cfa_register 6
	subq	$8, %rsp
	movq	%rdi, -8(%rbp)
	.loc 2 341 0
	movq	-8(%rbp), %rax
	movq	(%rax), %rax
	cmpq	$5, %rax
	ja	.L102
	leaq	0(,%rax,4), %rdx
	leaq	.L104(%rip), %rax
	movl	(%rdx,%rax), %eax
	movslq	%eax, %rdx
	leaq	.L104(%rip), %rax
	addq	%rdx, %rax
	jmp	*%rax
#	.section	.rodata
	.align 4
	.align 4
.L104:
	.long	.L103-.L104
	.long	.L105-.L104
	.long	.L106-.L104
	.long	.L107-.L104
	.long	.L108-.L104
	.long	.L109-.L104
	.text
.L105:
	.loc 2 343 0
	movq	-8(%rbp), %rax
	movq	8(%rax), %rax
	testq	%rax, %rax
	setne	%al
	movzbl	%al, %eax
	jmp	.L110
.L106:
	.loc 2 345 0
	movq	-8(%rbp), %rax
	movq	8(%rax), %rax
	testq	%rax, %rax
	setne	%al
	movzbl	%al, %eax
	jmp	.L110
.L107:
	.loc 2 347 0
	movq	-8(%rbp), %rax
	movq	8(%rax), %rax
	movq	%rax, %rdi
	call	stringlen
	jmp	.L110
.L108:
	.loc 2 349 0
	movq	-8(%rbp), %rax
	movq	8(%rax), %rax
	jmp	.L110
.L109:
	.loc 2 351 0
	movq	-8(%rbp), %rax
	movq	8(%rax), %rax
	testq	%rax, %rax
	setne	%al
	movzbl	%al, %eax
	jmp	.L110
.L103:
	.loc 2 353 0
	movl	$0, %eax
	jmp	.L110
.L102:
	.loc 2 355 0
	movl	$0, %eax
.L110:
	.loc 2 357 0
	leave
	.cfi_def_cfa 7, 8
	ret
	.cfi_endproc
.LFE27:
	.size	isTrue, .-isTrue
#	.section	.#rodata
.LC2:
	.string	" [unary-op] unkown op:%d\n"
	.text
	.globl	operator_switch
	.type	operator_switch, @function
operator_switch:
.LFB28:
	.loc 2 364 0
	.cfi_startproc
	pushq	%rbp
	.cfi_def_cfa_offset 16
	.cfi_offset 6, -16
	movq	%rsp, %rbp
	.cfi_def_cfa_register 6
	subq	$48, %rsp
	movl	%edi, -20(%rbp)
	movq	%rsi, -32(%rbp)
	movq	%rdx, -40(%rbp)
	.loc 2 366 0
	movl	-20(%rbp), %eax
	subl	$7, %eax
	cmpl	$28, %eax
	ja	.L112
	movl	%eax, %eax
	leaq	0(,%rax,4), %rdx
	leaq	.L114(%rip), %rax
	movl	(%rdx,%rax), %eax
	movslq	%eax, %rdx
	leaq	.L114(%rip), %rax
	addq	%rdx, %rax
	jmp	*%rax
#	.section	.rodata
	.align 4
	.align 4
.L114:
	.long	.L113-.L114
	.long	.L115-.L114
	.long	.L112-.L114
	.long	.L112-.L114
	.long	.L113-.L114
	.long	.L115-.L114
	.long	.L116-.L114
	.long	.L117-.L114
	.long	.L116-.L114
	.long	.L117-.L114
	.long	.L118-.L114
	.long	.L119-.L114
	.long	.L112-.L114
	.long	.L120-.L114
	.long	.L121-.L114
	.long	.L122-.L114
	.long	.L123-.L114
	.long	.L124-.L114
	.long	.L125-.L114
	.long	.L126-.L114
	.long	.L127-.L114
	.long	.L128-.L114
	.long	.L129-.L114
	.long	.L112-.L114
	.long	.L130-.L114
	.long	.L126-.L114
	.long	.L127-.L114
	.long	.L128-.L114
	.long	.L129-.L114
	.text
.L130:
	.loc 2 368 0
	movq	-40(%rbp), %rax
	movq	%rax, -8(%rbp)
	jmp	.L131
.L126:
	.loc 2 372 0
	movq	-40(%rbp), %rdx
	movq	-32(%rbp), %rax
	movq	%rdx, %rsi
	movq	%rax, %rdi
	call	value_plus
	movq	%rax, -8(%rbp)
	jmp	.L131
.L127:
	.loc 2 375 0
	movq	-40(%rbp), %rdx
	movq	-32(%rbp), %rax
	movq	%rdx, %rsi
	movq	%rax, %rdi
	call	value_minus
	movq	%rax, -8(%rbp)
	jmp	.L131
.L128:
	.loc 2 378 0
	movq	-40(%rbp), %rdx
	movq	-32(%rbp), %rax
	movq	%rdx, %rsi
	movq	%rax, %rdi
	call	value_mul
	movq	%rax, -8(%rbp)
	jmp	.L131
.L129:
	.loc 2 381 0
	movq	-40(%rbp), %rdx
	movq	-32(%rbp), %rax
	movq	%rdx, %rsi
	movq	%rax, %rdi
	call	value_div
	movq	%rax, -8(%rbp)
	jmp	.L131
.L113:
	.loc 2 384 0
	movq	-40(%rbp), %rdx
	movq	-32(%rbp), %rax
	movq	%rdx, %rsi
	movq	%rax, %rdi
	call	value_bitand
	movq	%rax, -8(%rbp)
	jmp	.L131
.L115:
	.loc 2 387 0
	movq	-40(%rbp), %rdx
	movq	-32(%rbp), %rax
	movq	%rdx, %rsi
	movq	%rax, %rdi
	call	value_bitor
	movq	%rax, -8(%rbp)
	jmp	.L131
.L116:
	.loc 2 390 0
	movq	-40(%rbp), %rdx
	movq	-32(%rbp), %rax
	movq	%rdx, %rsi
	movq	%rax, %rdi
	call	value_shift_left
	movq	%rax, -8(%rbp)
	jmp	.L131
.L117:
	.loc 2 393 0
	movq	-40(%rbp), %rdx
	movq	-32(%rbp), %rax
	movq	%rdx, %rsi
	movq	%rax, %rdi
	call	value_shift_right
	movq	%rax, -8(%rbp)
	jmp	.L131
.L124:
	.loc 2 395 0
	movq	-40(%rbp), %rcx
	movq	-32(%rbp), %rax
	movl	$0, %edx
	movq	%rcx, %rsi
	movq	%rax, %rdi
	call	value_lowerthan
	movq	%rax, -8(%rbp)
	jmp	.L131
.L125:
	.loc 2 397 0
	movq	-40(%rbp), %rcx
	movq	-32(%rbp), %rax
	movl	$1, %edx
	movq	%rcx, %rsi
	movq	%rax, %rdi
	call	value_lowerthan
	movq	%rax, -8(%rbp)
	jmp	.L131
.L123:
	.loc 2 399 0
	movq	-40(%rbp), %rcx
	movq	-32(%rbp), %rax
	movl	$1, %edx
	movq	%rcx, %rsi
	movq	%rax, %rdi
	call	value_greaterthan
	movq	%rax, -8(%rbp)
	jmp	.L131
.L122:
	.loc 2 401 0
	movq	-40(%rbp), %rcx
	movq	-32(%rbp), %rax
	movl	$0, %edx
	movq	%rcx, %rsi
	movq	%rax, %rdi
	call	value_greaterthan
	movq	%rax, -8(%rbp)
	jmp	.L131
.L120:
	.loc 2 403 0
	movq	-40(%rbp), %rcx
	movq	-32(%rbp), %rax
	movl	$1, %edx
	movq	%rcx, %rsi
	movq	%rax, %rdi
	call	value_equal
	movq	%rax, -8(%rbp)
	jmp	.L131
.L121:
	.loc 2 405 0
	movq	-40(%rbp), %rcx
	movq	-32(%rbp), %rax
	movl	$0, %edx
	movq	%rcx, %rsi
	movq	%rax, %rdi
	call	value_equal
	movq	%rax, -8(%rbp)
	jmp	.L131
.L118:
	.loc 2 407 0
	movq	-40(%rbp), %rdx
	movq	-32(%rbp), %rax
	movq	%rdx, %rsi
	movq	%rax, %rdi
	call	value_logand
	movq	%rax, -8(%rbp)
	jmp	.L131
.L119:
	.loc 2 409 0
	movq	-40(%rbp), %rdx
	movq	-32(%rbp), %rax
	movq	%rdx, %rsi
	movq	%rax, %rdi
	call	value_logor
	movq	%rax, -8(%rbp)
	jmp	.L131
.L112:
	.loc 2 411 0
	movl	-20(%rbp), %eax
	movl	%eax, %esi
	leaq	.LC2(%rip), %rdi
	movl	$0, %eax
	call	printf@PLT
	.loc 2 412 0
	movq	-40(%rbp), %rax
	movq	%rax, -8(%rbp)
.L131:
	.loc 2 414 0
	movq	-8(%rbp), %rax
	.loc 2 415 0
	leave
	.cfi_def_cfa 7, 8
	ret
	.cfi_endproc
.LFE28:
	.size	operator_switch, .-operator_switch
#	.section	.rodata
	.align 8
.LC3:
	.string	" [unary-op] probably wrong at there! lhs:%p rhs:%p\n"
	.text
	.globl	unary_operator
	.type	unary_operator, @function
unary_operator:
.LFB29:
	.loc 2 424 0
	.cfi_startproc
	pushq	%rbp
	.cfi_def_cfa_offset 16
	.cfi_offset 6, -16
	movq	%rsp, %rbp
	.cfi_def_cfa_register 6
	subq	$48, %rsp
	movl	%edi, -20(%rbp)
	movq	%rsi, -32(%rbp)
	movq	%rdx, -40(%rbp)
	.loc 2 425 0
	cmpq	$0, -32(%rbp)
	je	.L134
	.loc 2 425 0 is_stmt 0 discriminator 1
	cmpq	$0, -40(%rbp)
	jne	.L135
.L134:
	.loc 2 426 0 is_stmt 1
	movq	-40(%rbp), %rdx
	movq	-32(%rbp), %rax
	movq	%rax, %rsi
	leaq	.LC3(%rip), %rdi
	movl	$0, %eax
	call	printf@PLT
	.loc 2 427 0
	jmp	.L133
.L135:
	.loc 2 429 0
	movq	-32(%rbp), %rax
	movq	(%rax), %rcx
	movq	-40(%rbp), %rdx
	movl	-20(%rbp), %eax
	movq	%rcx, %rsi
	movl	%eax, %edi
	call	operator_switch
	movq	%rax, -8(%rbp)
	.loc 2 431 0
	movq	-32(%rbp), %rax
	movq	-8(%rbp), %rdx
	movq	%rdx, (%rax)
.L133:
	.loc 2 432 0
	leave
	.cfi_def_cfa 7, 8
	ret
	.cfi_endproc
.LFE29:
	.size	unary_operator, .-unary_operator
	#.section	.rodata
	.align 8
.LC4:
	.string	" [binary-op] probably wrong at there! lhs:%p rhs:%p\n"
.LC5:
	.string	"some erro"
	.text
	.globl	binary_operator
	.type	binary_operator, @function
binary_operator:
.LFB30:
	.loc 2 440 0
	.cfi_startproc
	pushq	%rbp
	.cfi_def_cfa_offset 16
	.cfi_offset 6, -16
	movq	%rsp, %rbp
	.cfi_def_cfa_register 6
	subq	$48, %rsp
	movl	%edi, -20(%rbp)
	movq	%rsi, -32(%rbp)
	movq	%rdx, -40(%rbp)
	.loc 2 441 0
	cmpq	$0, -32(%rbp)
	je	.L138
	.loc 2 441 0 is_stmt 0 discriminator 1
	cmpq	$0, -40(%rbp)
	jne	.L139
.L138:
	.loc 2 442 0 is_stmt 1
	movq	-40(%rbp), %rdx
	movq	-32(%rbp), %rax
	movq	%rax, %rsi
	leaq	.LC4(%rip), %rdi
	movl	$0, %eax
	call	printf@PLT
	.loc 2 443 0
	movl	$0, %eax
	jmp	.L140
.L139:
	.loc 2 445 0
	movq	-40(%rbp), %rdx
	movq	-32(%rbp), %rcx
	movl	-20(%rbp), %eax
	movq	%rcx, %rsi
	movl	%eax, %edi
	call	operator_switch
	movq	%rax, -8(%rbp)
	.loc 2 446 0
	movq	-8(%rbp), %rax
	movq	8(%rax), %rax
	cmpq	$1, %rax
	jne	.L141
	.loc 2 446 0 is_stmt 0 discriminator 1
	movq	-8(%rbp), %rax
	movq	(%rax), %rax
	cmpq	$3, %rax
	je	.L142
.L141:
	.loc 2 446 0 discriminator 3
	movabsq	$140737353797776, %rax
	cmpq	%rax, -8(%rbp)
	jne	.L143
.L142:
	.loc 2 447 0 is_stmt 1
	leaq	.LC5(%rip), %rdi
	movl	$0, %eax
	call	printf@PLT
.L143:
	.loc 2 449 0
	movq	-8(%rbp), %rax
.L140:
	.loc 2 450 0
	leave
	.cfi_def_cfa 7, 8
	ret
	.cfi_endproc
.LFE30:
	.size	binary_operator, .-binary_operator
.Letext0:
	.file 3 "/usr/lib/gcc/x86_64-linux-gnu/7/include/stddef.h"
	.file 4 "/usr/include/x86_64-linux-gnu/bits/types.h"
	.file 5 "/usr/include/x86_64-linux-gnu/bits/libio.h"
	.file 6 "/usr/include/stdio.h"
	.file 7 "/usr/include/x86_64-linux-gnu/bits/sys_errlist.h"
	.file 8 "/usr/include/unistd.h"
	.file 9 "/usr/include/x86_64-linux-gnu/bits/getopt_core.h"
	.file 10 "/usr/include/time.h"
	.file 11 "/home/xiaodo/c++/colang/src/gc/Hugmem.h"
	.file 12 "/home/xiaodo/c++/colang/src/gc/gc.h"
	.file 13 "/home/xiaodo/c++/colang/src/internal/Value.h"
	.file 14 "/usr/include/x86_64-linux-gnu/bits/stdint-uintn.h"
	.file 15 "/home/xiaodo/c++/colang/src/internal/../ast/Token.h"
	.section	.note.GNU-stack,"",@progbits
