	.file	"Fmt.c"
	.text
.Ltext0:
	#.section	.rodata
.LC0:
	.string	"null\n"
.LC1:
	.string	"%ld"
.LC2:
	.string	"%s"
.LC3:
	.string	"undefine"
.LC4:
	.string	"\n"
	.text
	.globl	println
	.type	println, @function
println:
.LFB11:
	.file 1 "/home/xiaodo/c++/colang/src/internal/Fmt.c"
	.loc 1 8 0
	.cfi_startproc
	pushq	%rbp
	.cfi_def_cfa_offset 16
	.cfi_offset 6, -16
	movq	%rsp, %rbp
	.cfi_def_cfa_register 6
	subq	$240, %rsp
	movq	%rdi, -232(%rbp)
	movq	%rsi, -168(%rbp)
	movq	%rdx, -160(%rbp)
	movq	%rcx, -152(%rbp)
	movq	%r8, -144(%rbp)
	movq	%r9, -136(%rbp)
	testb	%al, %al
	je	.L16
	movaps	%xmm0, -128(%rbp)
	movaps	%xmm1, -112(%rbp)
	movaps	%xmm2, -96(%rbp)
	movaps	%xmm3, -80(%rbp)
	movaps	%xmm4, -64(%rbp)
	movaps	%xmm5, -48(%rbp)
	movaps	%xmm6, -32(%rbp)
	movaps	%xmm7, -16(%rbp)
.L16:
	.loc 1 13 0
	movl	$8, -216(%rbp)
	movl	$48, -212(%rbp)
	leaq	16(%rbp), %rax
	movq	%rax, -208(%rbp)
	leaq	-176(%rbp), %rax
	movq	%rax, -200(%rbp)
	.loc 1 15 0
	movq	-232(%rbp), %rax
	movq	8(%rax), %rax
	movl	%eax, -184(%rbp)
	.loc 1 17 0
	movl	$0, -180(%rbp)
	jmp	.L3
.L14:
	.loc 1 18 0
	movl	-216(%rbp), %eax
	cmpl	$47, %eax
	ja	.L4
	movq	-200(%rbp), %rax
	movl	-216(%rbp), %edx
	movl	%edx, %edx
	addq	%rdx, %rax
	movl	-216(%rbp), %edx
	addl	$8, %edx
	movl	%edx, -216(%rbp)
	jmp	.L5
.L4:
	movq	-208(%rbp), %rax
	leaq	8(%rax), %rdx
	movq	%rdx, -208(%rbp)
.L5:
	movq	(%rax), %rax
	movq	%rax, -192(%rbp)
	.loc 1 19 0
	cmpq	$0, -192(%rbp)
	jne	.L6
	.loc 1 20 0
	leaq	.LC0(%rip), %rdi
	movl	$0, %eax
	call	printf@PLT
	.loc 1 21 0
	jmp	.L7
.L6:
	.loc 1 23 0
	movq	-192(%rbp), %rax
	movq	(%rax), %rax
	cmpq	$6, %rax
	ja	.L8
	leaq	0(,%rax,4), %rdx
	leaq	.L10(%rip), %rax
	movl	(%rdx,%rax), %eax
	movslq	%eax, %rdx
	leaq	.L10(%rip), %rax
	addq	%rdx, %rax
	jmp	*%rax
	#.section	.rodata
	.align 4
	.align 4
.L10:
	.long	.L8-.L10
	.long	.L9-.L10
	.long	.L9-.L10
	.long	.L11-.L10
	.long	.L9-.L10
	.long	.L8-.L10
	.long	.L12-.L10
	.text
.L9:
	.loc 1 27 0
	movq	-192(%rbp), %rax
	movq	8(%rax), %rax
	movq	%rax, %rsi
	leaq	.LC1(%rip), %rdi
	movl	$0, %eax
	call	printf@PLT
	.loc 1 28 0
	jmp	.L13
.L11:
	.loc 1 30 0
	movq	-192(%rbp), %rax
	movq	8(%rax), %rax
	movq	%rax, %rsi
	leaq	.LC2(%rip), %rdi
	movl	$0, %eax
	call	printf@PLT
	.loc 1 31 0
	jmp	.L13
.L12:
	.loc 1 33 0
	movq	-192(%rbp), %rax
	movq	%rax, %rdi
	call	arr_tostring@PLT
	movq	%rax, %rsi
	leaq	.LC2(%rip), %rdi
	movl	$0, %eax
	call	printf@PLT
	.loc 1 34 0
	jmp	.L13
.L8:
	.loc 1 36 0
	leaq	.LC3(%rip), %rdi
	movl	$0, %eax
	call	printf@PLT
.L13:
	.loc 1 38 0
	leaq	.LC4(%rip), %rdi
	movl	$0, %eax
	call	printf@PLT
.L7:
	.loc 1 17 0 discriminator 2
	addl	$1, -180(%rbp)
.L3:
	.loc 1 17 0 is_stmt 0 discriminator 1
	movl	-180(%rbp), %eax
	cmpl	-184(%rbp), %eax
	jl	.L14
	.loc 1 42 0 is_stmt 1
	movl	-184(%rbp), %eax
	.loc 1 44 0
	leave
	.cfi_def_cfa 7, 8
	ret
	.cfi_endproc
.LFE11:
	.size	println, .-println
#	.section	.rodata
.LC5:
	.string	"null"
	.text
	.globl	print
	.type	print, @function
print:
.LFB12:
	.loc 1 45 0
	.cfi_startproc
	pushq	%rbp
	.cfi_def_cfa_offset 16
	.cfi_offset 6, -16
	movq	%rsp, %rbp
	.cfi_def_cfa_register 6
	subq	$240, %rsp
	movq	%rdi, -232(%rbp)
	movq	%rsi, -168(%rbp)
	movq	%rdx, -160(%rbp)
	movq	%rcx, -152(%rbp)
	movq	%r8, -144(%rbp)
	movq	%r9, -136(%rbp)
	testb	%al, %al
	je	.L31
	movaps	%xmm0, -128(%rbp)
	movaps	%xmm1, -112(%rbp)
	movaps	%xmm2, -96(%rbp)
	movaps	%xmm3, -80(%rbp)
	movaps	%xmm4, -64(%rbp)
	movaps	%xmm5, -48(%rbp)
	movaps	%xmm6, -32(%rbp)
	movaps	%xmm7, -16(%rbp)
.L31:
	.loc 1 50 0
	movl	$8, -216(%rbp)
	movl	$48, -212(%rbp)
	leaq	16(%rbp), %rax
	movq	%rax, -208(%rbp)
	leaq	-176(%rbp), %rax
	movq	%rax, -200(%rbp)
	.loc 1 52 0
	movq	-232(%rbp), %rax
	movq	8(%rax), %rax
	movl	%eax, -184(%rbp)
	.loc 1 54 0
	movl	$0, -180(%rbp)
	jmp	.L19
.L29:
	.loc 1 55 0
	movl	-216(%rbp), %eax
	cmpl	$47, %eax
	ja	.L20
	movq	-200(%rbp), %rax
	movl	-216(%rbp), %edx
	movl	%edx, %edx
	addq	%rdx, %rax
	movl	-216(%rbp), %edx
	addl	$8, %edx
	movl	%edx, -216(%rbp)
	jmp	.L21
.L20:
	movq	-208(%rbp), %rax
	leaq	8(%rax), %rdx
	movq	%rdx, -208(%rbp)
.L21:
	movq	(%rax), %rax
	movq	%rax, -192(%rbp)
	.loc 1 56 0
	cmpq	$0, -192(%rbp)
	jne	.L22
	.loc 1 57 0
	leaq	.LC5(%rip), %rdi
	movl	$0, %eax
	call	printf@PLT
	.loc 1 58 0
	jmp	.L23
.L22:
	.loc 1 60 0
	movq	-192(%rbp), %rax
	movq	(%rax), %rax
	cmpq	$6, %rax
	ja	.L24
	leaq	0(,%rax,4), %rdx
	leaq	.L26(%rip), %rax
	movl	(%rdx,%rax), %eax
	movslq	%eax, %rdx
	leaq	.L26(%rip), %rax
	addq	%rdx, %rax
	jmp	*%rax
	#.section	.rodata
	.align 4
	.align 4
.L26:
	.long	.L24-.L26
	.long	.L25-.L26
	.long	.L25-.L26
	.long	.L27-.L26
	.long	.L25-.L26
	.long	.L24-.L26
	.long	.L28-.L26
	.text
.L25:
	.loc 1 64 0
	movq	-192(%rbp), %rax
	movq	8(%rax), %rax
	movq	%rax, %rsi
	leaq	.LC1(%rip), %rdi
	movl	$0, %eax
	call	printf@PLT
	.loc 1 65 0
	jmp	.L23
.L27:
	.loc 1 67 0
	movq	-192(%rbp), %rax
	movq	8(%rax), %rax
	movq	%rax, %rsi
	leaq	.LC2(%rip), %rdi
	movl	$0, %eax
	call	printf@PLT
	.loc 1 68 0
	jmp	.L23
.L28:
	.loc 1 70 0
	movq	-192(%rbp), %rax
	movq	%rax, %rdi
	call	arr_tostring@PLT
	movq	%rax, %rsi
	leaq	.LC2(%rip), %rdi
	movl	$0, %eax
	call	printf@PLT
	.loc 1 71 0
	jmp	.L23
.L24:
	.loc 1 73 0
	leaq	.LC3(%rip), %rdi
	movl	$0, %eax
	call	printf@PLT
.L23:
	.loc 1 54 0 discriminator 2
	addl	$1, -180(%rbp)
.L19:
	.loc 1 54 0 is_stmt 0 discriminator 1
	movl	-180(%rbp), %eax
	cmpl	-184(%rbp), %eax
	jl	.L29
	.loc 1 77 0 is_stmt 1
	movl	-184(%rbp), %eax
	.loc 1 79 0
	leave
	.cfi_def_cfa 7, 8
	ret
	.cfi_endproc
.LFE12:
	.size	print, .-print
.Letext0:
	.file 2 "/usr/lib/gcc/x86_64-linux-gnu/7/include/stddef.h"
	.file 3 "/usr/include/x86_64-linux-gnu/bits/types.h"
	.file 4 "/usr/include/x86_64-linux-gnu/bits/libio.h"
	.file 5 "/usr/lib/gcc/x86_64-linux-gnu/7/include/stdarg.h"
	.file 6 "<built-in>"
	.file 7 "/usr/include/stdio.h"
	.file 8 "/usr/include/x86_64-linux-gnu/bits/sys_errlist.h"
	.file 9 "/usr/include/unistd.h"
	.file 10 "/usr/include/x86_64-linux-gnu/bits/getopt_core.h"
	.file 11 "/usr/include/time.h"
	.file 12 "/home/xiaodo/c++/colang/src/gc/Hugmem.h"
	.file 13 "/home/xiaodo/c++/colang/src/gc/gc.h"
	.file 14 "/home/xiaodo/c++/colang/src/internal/Value.h"
	.file 15 "/home/xiaodo/c++/colang/src/internal/String.h"
	.section	.note.GNU-stack,"",@progbits
