	.file	"Int.c"
	.text
.Ltext0:
	.globl	value_int_plus
	.type	value_int_plus, @function
value_int_plus:
.LFB5:
	.file 1 "/home/xiaodo/c++/colang/src/internal/Int.c"
	.loc 1 4 0
	.cfi_startproc
	pushq	%rbp
	.cfi_def_cfa_offset 16
	.cfi_offset 6, -16
	movq	%rsp, %rbp
	.cfi_def_cfa_register 6
	movq	%rdi, -8(%rbp)
	movq	%rsi, -16(%rbp)
	.loc 1 5 0
	movq	-8(%rbp), %rax
	movq	8(%rax), %rax
	movq	%rax, %rdx
	movq	-16(%rbp), %rax
	movq	8(%rax), %rax
	addq	%rdx, %rax
	.loc 1 6 0
	popq	%rbp
	.cfi_def_cfa 7, 8
	ret
	.cfi_endproc
.LFE5:
	.size	value_int_plus, .-value_int_plus
	.globl	value_int_minus
	.type	value_int_minus, @function
value_int_minus:
.LFB6:
	.loc 1 8 0
	.cfi_startproc
	pushq	%rbp
	.cfi_def_cfa_offset 16
	.cfi_offset 6, -16
	movq	%rsp, %rbp
	.cfi_def_cfa_register 6
	movq	%rdi, -8(%rbp)
	movq	%rsi, -16(%rbp)
	.loc 1 9 0
	movq	-8(%rbp), %rax
	movq	8(%rax), %rax
	movq	%rax, %rdx
	movq	-16(%rbp), %rax
	movq	8(%rax), %rax
	subq	%rax, %rdx
	movq	%rdx, %rax
	.loc 1 10 0
	popq	%rbp
	.cfi_def_cfa 7, 8
	ret
	.cfi_endproc
.LFE6:
	.size	value_int_minus, .-value_int_minus
	.globl	value_int_mul
	.type	value_int_mul, @function
value_int_mul:
.LFB7:
	.loc 1 12 0
	.cfi_startproc
	pushq	%rbp
	.cfi_def_cfa_offset 16
	.cfi_offset 6, -16
	movq	%rsp, %rbp
	.cfi_def_cfa_register 6
	movq	%rdi, -8(%rbp)
	movq	%rsi, -16(%rbp)
	.loc 1 13 0
	movq	-8(%rbp), %rax
	movq	8(%rax), %rax
	movq	%rax, %rdx
	movq	-16(%rbp), %rax
	movq	8(%rax), %rax
	imulq	%rdx, %rax
	.loc 1 14 0
	popq	%rbp
	.cfi_def_cfa 7, 8
	ret
	.cfi_endproc
.LFE7:
	.size	value_int_mul, .-value_int_mul
	.globl	value_int_div
	.type	value_int_div, @function
value_int_div:
.LFB8:
	.loc 1 16 0
	.cfi_startproc
	pushq	%rbp
	.cfi_def_cfa_offset 16
	.cfi_offset 6, -16
	movq	%rsp, %rbp
	.cfi_def_cfa_register 6
	movq	%rdi, -8(%rbp)
	movq	%rsi, -16(%rbp)
	.loc 1 17 0
	movq	-8(%rbp), %rax
	movq	8(%rax), %rax
	movq	%rax, %rdx
	movq	-16(%rbp), %rax
	movq	8(%rax), %rax
	movq	%rax, %rcx
	movq	%rdx, %rax
	cqto
	idivq	%rcx
	.loc 1 18 0
	popq	%rbp
	.cfi_def_cfa 7, 8
	ret
	.cfi_endproc
.LFE8:
	.size	value_int_div, .-value_int_div
	.globl	value_int_bitand
	.type	value_int_bitand, @function
value_int_bitand:
.LFB9:
	.loc 1 20 0
	.cfi_startproc
	pushq	%rbp
	.cfi_def_cfa_offset 16
	.cfi_offset 6, -16
	movq	%rsp, %rbp
	.cfi_def_cfa_register 6
	movq	%rdi, -8(%rbp)
	movq	%rsi, -16(%rbp)
	.loc 1 21 0
	movq	-8(%rbp), %rax
	movq	8(%rax), %rax
	movq	%rax, %rdx
	movq	-16(%rbp), %rax
	movq	8(%rax), %rax
	andq	%rdx, %rax
	.loc 1 22 0
	popq	%rbp
	.cfi_def_cfa 7, 8
	ret
	.cfi_endproc
.LFE9:
	.size	value_int_bitand, .-value_int_bitand
	.globl	value_int_bitor
	.type	value_int_bitor, @function
value_int_bitor:
.LFB10:
	.loc 1 24 0
	.cfi_startproc
	pushq	%rbp
	.cfi_def_cfa_offset 16
	.cfi_offset 6, -16
	movq	%rsp, %rbp
	.cfi_def_cfa_register 6
	movq	%rdi, -8(%rbp)
	movq	%rsi, -16(%rbp)
	.loc 1 25 0
	movq	-8(%rbp), %rax
	movq	8(%rax), %rax
	movq	%rax, %rdx
	movq	-16(%rbp), %rax
	movq	8(%rax), %rax
	orq	%rdx, %rax
	.loc 1 26 0
	popq	%rbp
	.cfi_def_cfa 7, 8
	ret
	.cfi_endproc
.LFE10:
	.size	value_int_bitor, .-value_int_bitor
	.globl	value_int_shift_left
	.type	value_int_shift_left, @function
value_int_shift_left:
.LFB11:
	.loc 1 28 0
	.cfi_startproc
	pushq	%rbp
	.cfi_def_cfa_offset 16
	.cfi_offset 6, -16
	movq	%rsp, %rbp
	.cfi_def_cfa_register 6
	movq	%rdi, -8(%rbp)
	movq	%rsi, -16(%rbp)
	.loc 1 29 0
	movq	-8(%rbp), %rax
	movq	8(%rax), %rax
	movq	%rax, %rdx
	movq	-16(%rbp), %rax
	movq	8(%rax), %rax
	movl	%eax, %ecx
	salq	%cl, %rdx
	movq	%rdx, %rax
	.loc 1 30 0
	popq	%rbp
	.cfi_def_cfa 7, 8
	ret
	.cfi_endproc
.LFE11:
	.size	value_int_shift_left, .-value_int_shift_left
	.globl	value_int_shift_right
	.type	value_int_shift_right, @function
value_int_shift_right:
.LFB12:
	.loc 1 32 0
	.cfi_startproc
	pushq	%rbp
	.cfi_def_cfa_offset 16
	.cfi_offset 6, -16
	movq	%rsp, %rbp
	.cfi_def_cfa_register 6
	movq	%rdi, -8(%rbp)
	movq	%rsi, -16(%rbp)
	.loc 1 33 0
	movq	-8(%rbp), %rax
	movq	8(%rax), %rax
	movq	%rax, %rdx
	movq	-16(%rbp), %rax
	movq	8(%rax), %rax
	movl	%eax, %ecx
	sarq	%cl, %rdx
	movq	%rdx, %rax
	.loc 1 34 0
	popq	%rbp
	.cfi_def_cfa 7, 8
	ret
	.cfi_endproc
.LFE12:
	.size	value_int_shift_right, .-value_int_shift_right
	.globl	value_int_equal
	.type	value_int_equal, @function
value_int_equal:
.LFB13:
	.loc 1 36 0
	.cfi_startproc
	pushq	%rbp
	.cfi_def_cfa_offset 16
	.cfi_offset 6, -16
	movq	%rsp, %rbp
	.cfi_def_cfa_register 6
	movq	%rdi, -8(%rbp)
	movq	%rsi, -16(%rbp)
	movl	%edx, -20(%rbp)
	.loc 1 37 0
	cmpl	$0, -20(%rbp)
	je	.L18
	.loc 1 38 0
	movq	-8(%rbp), %rax
	movq	8(%rax), %rax
	movq	%rax, %rdx
	movq	-16(%rbp), %rax
	movq	8(%rax), %rax
	cmpq	%rax, %rdx
	sete	%al
	movzbl	%al, %eax
	jmp	.L19
.L18:
	.loc 1 40 0
	movq	-8(%rbp), %rax
	movq	8(%rax), %rax
	movq	%rax, %rdx
	movq	-16(%rbp), %rax
	movq	8(%rax), %rax
	cmpq	%rax, %rdx
	setne	%al
	movzbl	%al, %eax
.L19:
	.loc 1 41 0
	popq	%rbp
	.cfi_def_cfa 7, 8
	ret
	.cfi_endproc
.LFE13:
	.size	value_int_equal, .-value_int_equal
	.globl	value_int_notequal
	.type	value_int_notequal, @function
value_int_notequal:
.LFB14:
	.loc 1 43 0
	.cfi_startproc
	pushq	%rbp
	.cfi_def_cfa_offset 16
	.cfi_offset 6, -16
	movq	%rsp, %rbp
	.cfi_def_cfa_register 6
	movq	%rdi, -8(%rbp)
	movq	%rsi, -16(%rbp)
	.loc 1 44 0
	movq	-8(%rbp), %rax
	movq	8(%rax), %rax
	movq	%rax, %rdx
	movq	-16(%rbp), %rax
	movq	8(%rax), %rax
	cmpq	%rax, %rdx
	setne	%al
	movzbl	%al, %eax
	.loc 1 45 0
	popq	%rbp
	.cfi_def_cfa 7, 8
	ret
	.cfi_endproc
.LFE14:
	.size	value_int_notequal, .-value_int_notequal
	.globl	value_int_lowerthan
	.type	value_int_lowerthan, @function
value_int_lowerthan:
.LFB15:
	.loc 1 47 0
	.cfi_startproc
	pushq	%rbp
	.cfi_def_cfa_offset 16
	.cfi_offset 6, -16
	movq	%rsp, %rbp
	.cfi_def_cfa_register 6
	movq	%rdi, -8(%rbp)
	movq	%rsi, -16(%rbp)
	movl	%edx, -20(%rbp)
	.loc 1 48 0
	cmpl	$0, -20(%rbp)
	je	.L23
	.loc 1 49 0
	movq	-8(%rbp), %rax
	movq	8(%rax), %rax
	movq	%rax, %rdx
	movq	-16(%rbp), %rax
	movq	8(%rax), %rax
	cmpq	%rax, %rdx
	setle	%al
	movzbl	%al, %eax
	jmp	.L24
.L23:
	.loc 1 51 0
	movq	-8(%rbp), %rax
	movq	8(%rax), %rax
	movq	%rax, %rdx
	movq	-16(%rbp), %rax
	movq	8(%rax), %rax
	cmpq	%rax, %rdx
	setl	%al
	movzbl	%al, %eax
.L24:
	.loc 1 52 0
	popq	%rbp
	.cfi_def_cfa 7, 8
	ret
	.cfi_endproc
.LFE15:
	.size	value_int_lowerthan, .-value_int_lowerthan
	.globl	value_int_greaterthan
	.type	value_int_greaterthan, @function
value_int_greaterthan:
.LFB16:
	.loc 1 54 0
	.cfi_startproc
	pushq	%rbp
	.cfi_def_cfa_offset 16
	.cfi_offset 6, -16
	movq	%rsp, %rbp
	.cfi_def_cfa_register 6
	movq	%rdi, -8(%rbp)
	movq	%rsi, -16(%rbp)
	movl	%edx, -20(%rbp)
	.loc 1 55 0
	cmpl	$0, -20(%rbp)
	je	.L26
	.loc 1 56 0
	movq	-8(%rbp), %rax
	movq	8(%rax), %rax
	movq	%rax, %rdx
	movq	-16(%rbp), %rax
	movq	8(%rax), %rax
	cmpq	%rax, %rdx
	setge	%al
	movzbl	%al, %eax
	jmp	.L27
.L26:
	.loc 1 58 0
	movq	-8(%rbp), %rax
	movq	8(%rax), %rax
	movq	%rax, %rdx
	movq	-16(%rbp), %rax
	movq	8(%rax), %rax
	cmpq	%rax, %rdx
	setg	%al
	movzbl	%al, %eax
.L27:
	.loc 1 59 0
	popq	%rbp
	.cfi_def_cfa 7, 8
	ret
	.cfi_endproc
.LFE16:
	.size	value_int_greaterthan, .-value_int_greaterthan
.Letext0:
	.file 2 "/usr/lib/gcc/x86_64-linux-gnu/7/include/stddef.h"
	.file 3 "/usr/include/x86_64-linux-gnu/bits/types.h"
	.file 4 "/usr/include/x86_64-linux-gnu/bits/libio.h"
	.file 5 "/usr/include/stdio.h"
	.file 6 "/usr/include/x86_64-linux-gnu/bits/sys_errlist.h"
	.file 7 "/usr/include/unistd.h"
	.file 8 "/usr/include/x86_64-linux-gnu/bits/getopt_core.h"
	.file 9 "/usr/include/time.h"
	.file 10 "/home/xiaodo/c++/colang/src/gc/Hugmem.h"
	.file 11 "/home/xiaodo/c++/colang/src/gc/gc.h"
	.file 12 "/home/xiaodo/c++/colang/src/internal/Value.h"
	.section	.note.GNU-stack,"",@progbits
