	.file	"entry.c"
	.text
.Ltext0:
	.type	crt_fatal_error, @function
crt_fatal_error:
.LFB0:
	.file 1 "/home/xiaodo/c++/colang/src/crt/entry.c"
	.loc 1 12 0
	.cfi_startproc
	pushq	%rbp
	.cfi_def_cfa_offset 16
	.cfi_offset 6, -16
	movq	%rsp, %rbp
	.cfi_def_cfa_register 6
	subq	$16, %rsp
	movq	%rdi, -8(%rbp)
	.loc 1 14 0
	movl	$1, %edi
	call	exit
	.loc 1 15 0
	nop
	leave
	.cfi_def_cfa 7, 8
	ret
	.cfi_endproc
.LFE0:
	.size	crt_fatal_error, .-crt_fatal_error
#	.section	.rodata
.LC0:
	.string	"heap initalize failed"
.LC1:
	.string	"IO initalize failed"
	.text
	.globl	mini_crt_entry
	.type	mini_crt_entry, @function
mini_crt_entry:
.LFB1:
	.loc 1 18 0
	.cfi_startproc
	pushq	%rbp
	.cfi_def_cfa_offset 16
	.cfi_offset 6, -16
	movq	%rsp, %rbp
	.cfi_def_cfa_register 6
	subq	$32, %rsp
	.loc 1 56 0
	movq	$0, -8(%rbp)
	.loc 1 58 0
#APP
# 58 "/home/xiaodo/c++/colang/src/crt/entry.c" 1
	movq %rbp,%rax 

# 0 "" 2
#NO_APP
	movq	%rax, -8(%rbp)
	.loc 1 60 0
	movq	-8(%rbp), %rax
	movq	4(%rax), %rax
	movq	%rax, -16(%rbp)
	.loc 1 61 0
	movq	-8(%rbp), %rax
	addq	$8, %rax
	movq	%rax, -24(%rbp)
	.loc 1 65 0
	movl	$0, %eax
	call	mini_crt_init_heap@PLT
	testq	%rax, %rax
	jne	.L3
	.loc 1 67 0
	leaq	.LC0(%rip), %rdi
	call	crt_fatal_error
.L3:
	.loc 1 70 0
	movl	$0, %eax
	call	mini_crt_init_io@PLT
	testq	%rax, %rax
	jne	.L4
	.loc 1 72 0
	leaq	.LC1(%rip), %rdi
	call	crt_fatal_error
.L4:
	.loc 1 75 0
	movq	-24(%rbp), %rdx
	movq	-16(%rbp), %rax
	movq	%rdx, %rsi
	movq	%rax, %rdi
	call	main@PLT
	cltq
	movq	%rax, -32(%rbp)
	.loc 1 76 0
	movq	-32(%rbp), %rax
	movq	%rax, %rdi
	call	exit
	.loc 1 77 0
	nop
	leave
	.cfi_def_cfa 7, 8
	ret
	.cfi_endproc
.LFE1:
	.size	mini_crt_entry, .-mini_crt_entry
	.globl	exit
	.type	exit, @function
exit:
.LFB2:
	.loc 1 80 0
	.cfi_startproc
	pushq	%rbp
	.cfi_def_cfa_offset 16
	.cfi_offset 6, -16
	movq	%rsp, %rbp
	.cfi_def_cfa_register 6
	movq	%rdi, -8(%rbp)
	.loc 1 85 0
#APP
# 85 "/home/xiaodo/c++/colang/src/crt/entry.c" 1
	movq -8(%rbp),%rbx 
	movq $1,%rax 
	int $0x80		
	hlt    
	
# 0 "" 2
	.loc 1 90 0
#NO_APP
	nop
	popq	%rbp
	.cfi_def_cfa 7, 8
	ret
	.cfi_endproc
.LFE2:
	.size	exit, .-exit
.Letext0:
	.section	.note.GNU-stack,"",@progbits
