	.file	"stdio.c"
	.text
.Ltext0:
	.globl	mini_crt_init_io
	.type	mini_crt_init_io, @function
mini_crt_init_io:
.LFB0:
	.file 1 "/home/xiaodo/c++/colang/src/crt/stdio.c"
	.loc 1 5 0
	.cfi_startproc
	pushq	%rbp
	.cfi_def_cfa_offset 16
	.cfi_offset 6, -16
	movq	%rsp, %rbp
	.cfi_def_cfa_register 6
	.loc 1 6 0
	movl	$1, %eax
	.loc 1 7 0
	popq	%rbp
	.cfi_def_cfa 7, 8
	ret
	.cfi_endproc
.LFE0:
	.size	mini_crt_init_io, .-mini_crt_init_io
	.type	open, @function
open:
.LFB1:
	.loc 1 84 0
	.cfi_startproc
	pushq	%rbp
	.cfi_def_cfa_offset 16
	.cfi_offset 6, -16
	movq	%rsp, %rbp
	.cfi_def_cfa_register 6
	movq	%rdi, -24(%rbp)
	movq	%rsi, -32(%rbp)
	movq	%rdx, -40(%rbp)
	.loc 1 85 0
	movq	$0, -8(%rbp)
	.loc 1 86 0
#APP
# 86 "/home/xiaodo/c++/colang/src/crt/stdio.c" 1
	movq $5,%rax		
	movq -24(%rbp),%rbx	
	movq -32(%rbp),%rcx 
	movq -40(%rbp),%rdx 
	int $0x80  
	movq %rax,-8(%rbp) 
	
# 0 "" 2
	.loc 1 94 0
#NO_APP
	movq	-8(%rbp), %rax
	.loc 1 95 0
	popq	%rbp
	.cfi_def_cfa 7, 8
	ret
	.cfi_endproc
.LFE1:
	.size	open, .-open
	.type	read, @function
read:
.LFB2:
	.loc 1 98 0
	.cfi_startproc
	pushq	%rbp
	.cfi_def_cfa_offset 16
	.cfi_offset 6, -16
	movq	%rsp, %rbp
	.cfi_def_cfa_register 6
	movq	%rdi, -24(%rbp)
	movq	%rsi, -32(%rbp)
	movq	%rdx, -40(%rbp)
	.loc 1 99 0
	movq	$0, -8(%rbp)
	.loc 1 100 0
#APP
# 100 "/home/xiaodo/c++/colang/src/crt/stdio.c" 1
	movq $3,%rax 
	movq -24(%rbp),%rbx 
	movq -32(%rbp),%rcx 
	movq -40(%rbp), %rdx 
	int $0x80  
	movq %rax,-8(%rbp)  
	
# 0 "" 2
	.loc 1 107 0
#NO_APP
	movq	-8(%rbp), %rax
	.loc 1 108 0
	popq	%rbp
	.cfi_def_cfa 7, 8
	ret
	.cfi_endproc
.LFE2:
	.size	read, .-read
	.globl	write
	.type	write, @function
write:
.LFB3:
	.loc 1 111 0
	.cfi_startproc
	pushq	%rbp
	.cfi_def_cfa_offset 16
	.cfi_offset 6, -16
	movq	%rsp, %rbp
	.cfi_def_cfa_register 6
	movq	%rdi, -24(%rbp)
	movq	%rsi, -32(%rbp)
	movq	%rdx, -40(%rbp)
	.loc 1 112 0
	movq	$0, -8(%rbp)
	.loc 1 113 0
#APP
# 113 "/home/xiaodo/c++/colang/src/crt/stdio.c" 1
	movq $4,%rax  
	movq -24(%rbp),%rbx 
	movq -32(%rbp),%rcx  
	movq -40(%rbp),%rdx 
	int $0x80  
	movq %rax,-8(%rbp) 
	
# 0 "" 2
	.loc 1 121 0
#NO_APP
	movq	-8(%rbp), %rax
	.loc 1 122 0
	popq	%rbp
	.cfi_def_cfa 7, 8
	ret
	.cfi_endproc
.LFE3:
	.size	write, .-write
	.type	close, @function
close:
.LFB4:
	.loc 1 125 0
	.cfi_startproc
	pushq	%rbp
	.cfi_def_cfa_offset 16
	.cfi_offset 6, -16
	movq	%rsp, %rbp
	.cfi_def_cfa_register 6
	movq	%rdi, -24(%rbp)
	.loc 1 126 0
	movq	$0, -8(%rbp)
	.loc 1 127 0
#APP
# 127 "/home/xiaodo/c++/colang/src/crt/stdio.c" 1
	movq $6,%rax  
	movq -24(%rbp),%rbx  
	int $0x80  
	movq %rax,-8(%rbp) 
	
# 0 "" 2
	.loc 1 133 0
#NO_APP
	movq	-8(%rbp), %rax
	.loc 1 134 0
	popq	%rbp
	.cfi_def_cfa 7, 8
	ret
	.cfi_endproc
.LFE4:
	.size	close, .-close
	.type	seek, @function
seek:
.LFB5:
	.loc 1 137 0
	.cfi_startproc
	pushq	%rbp
	.cfi_def_cfa_offset 16
	.cfi_offset 6, -16
	movq	%rsp, %rbp
	.cfi_def_cfa_register 6
	movq	%rdi, -24(%rbp)
	movq	%rsi, -32(%rbp)
	movq	%rdx, -40(%rbp)
	.loc 1 138 0
	movq	$0, -8(%rbp)
	.loc 1 139 0
#APP
# 139 "/home/xiaodo/c++/colang/src/crt/stdio.c" 1
	movq $19,%rax  
	movq -24(%rbp),%rbx 
	movq -32(%rbp),%rcx  
	movq -40(%rbp),%rdx 
	int $0x80  
	movq %rax,-8(%rbp) 
	
# 0 "" 2
	.loc 1 147 0
#NO_APP
	movq	-8(%rbp), %rax
	.loc 1 148 0
	popq	%rbp
	.cfi_def_cfa 7, 8
	ret
	.cfi_endproc
.LFE5:
	.size	seek, .-seek
#	.section	.rodata
.LC0:
	.string	"w"
.LC1:
	.string	"w+"
.LC2:
	.string	"r"
.LC3:
	.string	"r+"
	.text
	.globl	fopen
	.type	fopen, @function
fopen:
.LFB6:
	.loc 1 151 0
	.cfi_startproc
	pushq	%rbp
	.cfi_def_cfa_offset 16
	.cfi_offset 6, -16
	movq	%rsp, %rbp
	.cfi_def_cfa_register 6
	subq	$48, %rsp
	movq	%rdi, -40(%rbp)
	movq	%rsi, -48(%rbp)
	.loc 1 152 0
	movq	$-1, -16(%rbp)
	.loc 1 153 0
	movq	$0, -8(%rbp)
	.loc 1 154 0
	movq	$448, -24(%rbp)
	.loc 1 165 0
	movq	-48(%rbp), %rax
	leaq	.LC0(%rip), %rsi
	movq	%rax, %rdi
	call	strcmp@PLT
	testq	%rax, %rax
	jne	.L14
	.loc 1 167 0
	orq	$577, -8(%rbp)
.L14:
	.loc 1 170 0
	movq	-48(%rbp), %rax
	leaq	.LC1(%rip), %rsi
	movq	%rax, %rdi
	call	strcmp@PLT
	testq	%rax, %rax
	jne	.L15
	.loc 1 172 0
	orq	$578, -8(%rbp)
.L15:
	.loc 1 175 0
	movq	-48(%rbp), %rax
	leaq	.LC2(%rip), %rsi
	movq	%rax, %rdi
	call	strcmp@PLT
	testq	%rax, %rax
	.loc 1 180 0
	movq	-48(%rbp), %rax
	leaq	.LC3(%rip), %rsi
	movq	%rax, %rdi
	call	strcmp@PLT
	testq	%rax, %rax
	jne	.L17
	.loc 1 182 0
	orq	$66, -8(%rbp)
.L17:
	.loc 1 185 0
	movq	-24(%rbp), %rdx
	movq	-8(%rbp), %rcx
	movq	-40(%rbp), %rax
	movq	%rcx, %rsi
	movq	%rax, %rdi
	call	open
	movq	%rax, -16(%rbp)
	.loc 1 186 0
	movq	-16(%rbp), %rax
	.loc 1 187 0
	leave
	.cfi_def_cfa 7, 8
	ret
	.cfi_endproc
.LFE6:
	.size	fopen, .-fopen
	.globl	fread
	.type	fread, @function
fread:
.LFB7:
	.loc 1 190 0
	.cfi_startproc
	pushq	%rbp
	.cfi_def_cfa_offset 16
	.cfi_offset 6, -16
	movq	%rsp, %rbp
	.cfi_def_cfa_register 6
	subq	$32, %rsp
	movq	%rdi, -8(%rbp)
	movq	%rsi, -16(%rbp)
	movq	%rdx, -24(%rbp)
	movq	%rcx, -32(%rbp)
	.loc 1 191 0
	movq	-16(%rbp), %rax
	imulq	-24(%rbp), %rax
	movq	%rax, %rdx
	movq	-32(%rbp), %rax
	movq	-8(%rbp), %rcx
	movq	%rcx, %rsi
	movq	%rax, %rdi
	call	read
	.loc 1 192 0
	leave
	.cfi_def_cfa 7, 8
	ret
	.cfi_endproc
.LFE7:
	.size	fread, .-fread
	.globl	fwrite
	.type	fwrite, @function
fwrite:
.LFB8:
	.loc 1 194 0
	.cfi_startproc
	pushq	%rbp
	.cfi_def_cfa_offset 16
	.cfi_offset 6, -16
	movq	%rsp, %rbp
	.cfi_def_cfa_register 6
	subq	$32, %rsp
	movq	%rdi, -8(%rbp)
	movq	%rsi, -16(%rbp)
	movq	%rdx, -24(%rbp)
	movq	%rcx, -32(%rbp)
	.loc 1 195 0
	movq	-16(%rbp), %rax
	imulq	-24(%rbp), %rax
	movq	%rax, %rdx
	movq	-32(%rbp), %rax
	movq	-8(%rbp), %rcx
	movq	%rcx, %rsi
	movq	%rax, %rdi
	call	write
	.loc 1 196 0
	leave
	.cfi_def_cfa 7, 8
	ret
	.cfi_endproc
.LFE8:
	.size	fwrite, .-fwrite
	.globl	fclose
	.type	fclose, @function
fclose:
.LFB9:
	.loc 1 199 0
	.cfi_startproc
	pushq	%rbp
	.cfi_def_cfa_offset 16
	.cfi_offset 6, -16
	movq	%rsp, %rbp
	.cfi_def_cfa_register 6
	subq	$8, %rsp
	movq	%rdi, -8(%rbp)
	.loc 1 200 0
	movq	-8(%rbp), %rax
	movq	%rax, %rdi
	call	close
	.loc 1 201 0
	leave
	.cfi_def_cfa 7, 8
	ret
	.cfi_endproc
.LFE9:
	.size	fclose, .-fclose
	.globl	fseek
	.type	fseek, @function
fseek:
.LFB10:
	.loc 1 204 0
	.cfi_startproc
	pushq	%rbp
	.cfi_def_cfa_offset 16
	.cfi_offset 6, -16
	movq	%rsp, %rbp
	.cfi_def_cfa_register 6
	subq	$24, %rsp
	movq	%rdi, -8(%rbp)
	movq	%rsi, -16(%rbp)
	movq	%rdx, -24(%rbp)
	.loc 1 205 0
	movq	-8(%rbp), %rax
	movq	-24(%rbp), %rdx
	movq	-16(%rbp), %rcx
	movq	%rcx, %rsi
	movq	%rax, %rdi
	call	seek
	.loc 1 206 0
	leave
	.cfi_def_cfa 7, 8
	ret
	.cfi_endproc
.LFE10:
	.size	fseek, .-fseek
.Letext0:
	.file 2 "/home/xiaodo/c++/colang/src/crt/minicrt.h"
	.section	.note.GNU-stack,"",@progbits
